	.arch armv5te
	.fpu softvfp
	.eabi_attribute 20, 1
	.eabi_attribute 21, 1
	.eabi_attribute 23, 3
	.eabi_attribute 24, 1
	.eabi_attribute 25, 1
	.eabi_attribute 26, 2
	.eabi_attribute 30, 2
	.eabi_attribute 34, 0
	.eabi_attribute 18, 4
	.file	"qpeldsp.c"
	.text
.Ltext0:
	.cfi_sections	.debug_frame
	.align	2
	.type	avg_pixels8_l2_8, %function
avg_pixels8_l2_8:
.LFB74:
	.file 1 "libavcodec/hpel_template.c"
	.loc 1 103 0
	.cfi_startproc
	@ args = 12, pretend = 0, frame = 0
	@ frame_needed = 0, uses_anonymous_args = 0
.LVL0:
	stmfd	sp!, {r4, r5, r6, r7, r8, r9, r10, fp, lr}
	.cfi_def_cfa_offset 36
	.cfi_offset 4, -36
	.cfi_offset 5, -32
	.cfi_offset 6, -28
	.cfi_offset 7, -24
	.cfi_offset 8, -20
	.cfi_offset 9, -16
	.cfi_offset 10, -12
	.cfi_offset 11, -8
	.cfi_offset 14, -4
	.loc 1 103 0
	ldr	r5, [sp, #44]
	ldr	r7, [sp, #36]
	.loc 1 103 0 is_stmt 0 discriminator 1
	cmp	r5, #0
	.loc 1 103 0
	ldr	r8, [sp, #40]
	.loc 1 103 0 discriminator 1
	ldmlefd	sp!, {r4, r5, r6, r7, r8, r9, r10, fp, pc}
	mov	r6, #0
.LVL1:
.L3:
.LBB232:
	.loc 1 103 0 discriminator 6
	ldrb	fp, [r1, #1]	@ zero_extendqisi2
	ldrb	r10, [r2, #1]	@ zero_extendqisi2
	ldrb	r4, [r1]	@ zero_extendqisi2
	ldrb	r9, [r2]	@ zero_extendqisi2
	ldrb	lr, [r1, #2]	@ zero_extendqisi2
	ldrb	ip, [r2, #2]	@ zero_extendqisi2
	orr	r4, r4, fp, asl #8
	orr	r9, r9, r10, asl #8
	ldrb	fp, [r1, #3]	@ zero_extendqisi2
	ldrb	r10, [r2, #3]	@ zero_extendqisi2
	orr	r4, r4, lr, asl #16
	orr	r9, r9, ip, asl #16
	orr	lr, r4, fp, asl #24
.LVL2:
	orr	ip, r9, r10, asl #24
.LVL3:
.LBB233:
.LBB234:
	.file 2 "libavcodec/rnd_avg.h"
	.loc 2 33 0 is_stmt 1
	ldr	r4, .L8
	eor	r9, ip, lr
	and	r4, r4, r9
	orr	lr, ip, lr
.LVL4:
.LBE234:
.LBE233:
	.loc 1 103 0 discriminator 6
	ldr	r9, [r0]
.LVL5:
.LBB236:
.LBB235:
	.loc 2 33 0
	sub	ip, lr, r4, lsr #1
.LVL6:
.LBE235:
.LBE236:
.LBB237:
.LBB238:
	ldr	lr, .L8
	eor	r4, r9, ip
	and	lr, lr, r4
	orr	ip, r9, ip
.LVL7:
	sub	ip, ip, lr, lsr #1
.LBE238:
.LBE237:
	.loc 1 103 0 discriminator 6
	str	ip, [r0]
.LVL8:
	ldrb	fp, [r1, #5]	@ zero_extendqisi2
	ldrb	r10, [r2, #5]	@ zero_extendqisi2
	ldrb	r4, [r1, #4]	@ zero_extendqisi2
	ldrb	r9, [r2, #4]	@ zero_extendqisi2
.LVL9:
	ldrb	lr, [r1, #6]	@ zero_extendqisi2
	ldrb	ip, [r2, #6]	@ zero_extendqisi2
	orr	r4, r4, fp, asl #8
	orr	r9, r9, r10, asl #8
	ldrb	fp, [r1, #7]	@ zero_extendqisi2
	ldrb	r10, [r2, #7]	@ zero_extendqisi2
	orr	r4, r4, lr, asl #16
	orr	r9, r9, ip, asl #16
	orr	lr, r4, fp, asl #24
.LVL10:
	orr	ip, r9, r10, asl #24
.LVL11:
.LBB239:
.LBB240:
	.loc 2 33 0
	ldr	r4, .L8
	eor	r9, ip, lr
	and	r4, r4, r9
	orr	lr, ip, lr
.LVL12:
.LBE240:
.LBE239:
	.loc 1 103 0 discriminator 6
	ldr	r9, [r0, #4]
.LVL13:
.LBB242:
.LBB241:
	.loc 2 33 0
	sub	ip, lr, r4, lsr #1
.LVL14:
.LBE241:
.LBE242:
.LBB243:
.LBB244:
	ldr	lr, .L8
	eor	r4, r9, ip
.LBE244:
.LBE243:
.LBE232:
	.loc 1 103 0 discriminator 6
	add	r6, r6, #1
.LVL15:
.LBB247:
.LBB246:
.LBB245:
	.loc 2 33 0
	orr	ip, r9, ip
.LVL16:
	and	lr, lr, r4
.LVL17:
	sub	ip, ip, lr, lsr #1
.LBE245:
.LBE246:
.LBE247:
	.loc 1 103 0 discriminator 1
	cmp	r6, r5
.LBB248:
	.loc 1 103 0 is_stmt 0 discriminator 6
	str	ip, [r0, #4]
.LVL18:
	add	r1, r1, r7
	add	r2, r2, r8
	add	r0, r0, r3
.LBE248:
	.loc 1 103 0 discriminator 1
	bne	.L3
	ldmfd	sp!, {r4, r5, r6, r7, r8, r9, r10, fp, pc}
.L9:
	.align	2
.L8:
	.word	-16843010
	.cfi_endproc
.LFE74:
	.size	avg_pixels8_l2_8, .-avg_pixels8_l2_8
	.align	2
	.type	put_pixels8_l2_8, %function
put_pixels8_l2_8:
.LFB78:
	.loc 1 104 0 is_stmt 1
	.cfi_startproc
	@ args = 12, pretend = 0, frame = 0
	@ frame_needed = 0, uses_anonymous_args = 0
.LVL19:
	stmfd	sp!, {r4, r5, r6, r7, r8, r9, r10, fp, lr}
	.cfi_def_cfa_offset 36
	.cfi_offset 4, -36
	.cfi_offset 5, -32
	.cfi_offset 6, -28
	.cfi_offset 7, -24
	.cfi_offset 8, -20
	.cfi_offset 9, -16
	.cfi_offset 10, -12
	.cfi_offset 11, -8
	.cfi_offset 14, -4
	.loc 1 104 0
	ldr	r4, [sp, #44]
	ldr	r6, [sp, #36]
	.loc 1 104 0 is_stmt 0 discriminator 1
	cmp	r4, #0
	.loc 1 104 0
	ldr	r7, [sp, #40]
	.loc 1 104 0 discriminator 1
	ldmlefd	sp!, {r4, r5, r6, r7, r8, r9, r10, fp, pc}
	mov	r5, #0
.LVL20:
.L12:
.LBB254:
	.loc 1 104 0 discriminator 4
	ldrb	r10, [r1, #1]	@ zero_extendqisi2
	ldrb	r9, [r2, #1]	@ zero_extendqisi2
	ldrb	lr, [r1]	@ zero_extendqisi2
	ldrb	r8, [r2]	@ zero_extendqisi2
	ldrb	ip, [r1, #2]	@ zero_extendqisi2
	ldrb	fp, [r2, #2]	@ zero_extendqisi2
	orr	lr, lr, r10, asl #8
	orr	r8, r8, r9, asl #8
	ldrb	r10, [r1, #3]	@ zero_extendqisi2
	ldrb	r9, [r2, #3]	@ zero_extendqisi2
	orr	r8, r8, fp, asl #16
	orr	lr, lr, ip, asl #16
	orr	ip, lr, r10, asl #24
.LVL21:
	orr	lr, r8, r9, asl #24
.LVL22:
.LBB255:
.LBB256:
	.loc 2 33 0 is_stmt 1
	ldr	r8, .L16
	eor	r9, lr, ip
	and	r8, r8, r9
	orr	ip, lr, ip
.LVL23:
	sub	ip, ip, r8, lsr #1
.LBE256:
.LBE255:
	.loc 1 104 0 discriminator 4
	str	ip, [r0]
.LVL24:
	ldrb	r10, [r1, #5]	@ zero_extendqisi2
	ldrb	r9, [r2, #5]	@ zero_extendqisi2
	ldrb	lr, [r1, #4]	@ zero_extendqisi2
.LVL25:
	ldrb	r8, [r2, #4]	@ zero_extendqisi2
	ldrb	ip, [r1, #6]	@ zero_extendqisi2
	ldrb	fp, [r2, #6]	@ zero_extendqisi2
	orr	lr, lr, r10, asl #8
	orr	r8, r8, r9, asl #8
	ldrb	r10, [r1, #7]	@ zero_extendqisi2
	ldrb	r9, [r2, #7]	@ zero_extendqisi2
	orr	lr, lr, ip, asl #16
	orr	r8, r8, fp, asl #16
	orr	ip, lr, r10, asl #24
.LVL26:
	orr	lr, r8, r9, asl #24
.LVL27:
.LBB257:
.LBB258:
	.loc 2 33 0
	ldr	r8, .L16
	eor	r9, lr, ip
.LBE258:
.LBE257:
.LBE254:
	.loc 1 104 0 discriminator 4
	add	r5, r5, #1
.LVL28:
.LBB261:
.LBB260:
.LBB259:
	.loc 2 33 0
	orr	ip, lr, ip
.LVL29:
	and	r8, r8, r9
	sub	ip, ip, r8, lsr #1
.LBE259:
.LBE260:
.LBE261:
	.loc 1 104 0 discriminator 1
	cmp	r5, r4
.LBB262:
	.loc 1 104 0 is_stmt 0 discriminator 4
	str	ip, [r0, #4]
.LVL30:
	add	r1, r1, r6
	add	r2, r2, r7
	add	r0, r0, r3
.LBE262:
	.loc 1 104 0 discriminator 1
	bne	.L12
	ldmfd	sp!, {r4, r5, r6, r7, r8, r9, r10, fp, pc}
.L17:
	.align	2
.L16:
	.word	-16843010
	.cfi_endproc
.LFE78:
	.size	put_pixels8_l2_8, .-put_pixels8_l2_8
	.align	2
	.type	put_pixels16_8_c, %function
put_pixels16_8_c:
.LFB89:
	.file 3 "libavcodec/pel_template.c"
	.loc 3 78 0 is_stmt 1
	.cfi_startproc
	@ args = 0, pretend = 0, frame = 0
	@ frame_needed = 0, uses_anonymous_args = 0
.LVL31:
.LBB267:
.LBB268:
	.loc 3 78 0 is_stmt 0 discriminator 1
	cmp	r3, #0
.LVL32:
	bxle	lr
.LBE268:
.LBE267:
	.loc 3 78 0
	stmfd	sp!, {r4, r5, r6, r7, lr}
	.cfi_def_cfa_offset 20
	.cfi_offset 4, -20
	.cfi_offset 5, -16
	.cfi_offset 6, -12
	.cfi_offset 7, -8
	.cfi_offset 14, -4
.LBB270:
.LBB269:
	.loc 3 78 0 is_stmt 1 discriminator 1
	mov	ip, r1
	mov	r5, r0
	mov	r6, #0
.LVL33:
.L20:
	.loc 3 78 0 is_stmt 0 discriminator 3
	ldrb	r7, [ip, #1]	@ zero_extendqisi2
	ldrb	r4, [ip]	@ zero_extendqisi2
	ldrb	lr, [ip, #2]	@ zero_extendqisi2
	orr	r4, r4, r7, asl #8
	ldrb	r7, [ip, #3]	@ zero_extendqisi2
	orr	lr, r4, lr, asl #16
	orr	lr, lr, r7, asl #24
	str	lr, [r5]
	ldrb	r7, [ip, #5]	@ zero_extendqisi2
	ldrb	r4, [ip, #4]	@ zero_extendqisi2
	ldrb	lr, [ip, #6]	@ zero_extendqisi2
	orr	r4, r4, r7, asl #8
	ldrb	r7, [ip, #7]	@ zero_extendqisi2
	add	r6, r6, #1
.LVL34:
	orr	lr, r4, lr, asl #16
	orr	lr, lr, r7, asl #24
	.loc 3 78 0 discriminator 1
	cmp	r6, r3
	.loc 3 78 0 discriminator 3
	str	lr, [r5, #4]
	add	ip, ip, r2
.LVL35:
	add	r5, r5, r2
.LVL36:
	.loc 3 78 0 discriminator 1
	bne	.L20
.LBE269:
.LBE270:
	.loc 3 78 0
	add	r0, r0, #8
.LVL37:
	add	r1, r1, #8
.LVL38:
	mov	r4, #0
.LVL39:
.L22:
.LBB271:
.LBB272:
	.loc 3 78 0 discriminator 3
	ldrb	r5, [r1, #1]	@ zero_extendqisi2
	ldrb	lr, [r1]	@ zero_extendqisi2
	ldrb	ip, [r1, #2]	@ zero_extendqisi2
	orr	lr, lr, r5, asl #8
	ldrb	r5, [r1, #3]	@ zero_extendqisi2
	orr	ip, lr, ip, asl #16
	orr	ip, ip, r5, asl #24
	str	ip, [r0]
	ldrb	r5, [r1, #5]	@ zero_extendqisi2
	ldrb	lr, [r1, #4]	@ zero_extendqisi2
	ldrb	ip, [r1, #6]	@ zero_extendqisi2
	orr	lr, lr, r5, asl #8
	ldrb	r5, [r1, #7]	@ zero_extendqisi2
	add	r4, r4, #1
.LVL40:
	orr	ip, lr, ip, asl #16
	orr	ip, ip, r5, asl #24
	.loc 3 78 0 discriminator 1
	cmp	r4, r3
	.loc 3 78 0 discriminator 3
	str	ip, [r0, #4]
	add	r1, r1, r2
.LVL41:
	add	r0, r0, r2
.LVL42:
	.loc 3 78 0 discriminator 1
	bne	.L22
	ldmfd	sp!, {r4, r5, r6, r7, pc}
.LBE272:
.LBE271:
	.cfi_endproc
.LFE89:
	.size	put_pixels16_8_c, .-put_pixels16_8_c
	.align	2
	.type	avg_pixels8_l4_8, %function
avg_pixels8_l4_8:
.LFB92:
	.file 4 "libavcodec/qpel_template.c"
	.loc 4 218 0 is_stmt 1
	.cfi_startproc
	@ args = 28, pretend = 0, frame = 0
	@ frame_needed = 0, uses_anonymous_args = 0
.LVL43:
	stmfd	sp!, {r4, r5, r6, r7, r8, r9, r10, fp, lr}
	.cfi_def_cfa_offset 36
	.cfi_offset 4, -36
	.cfi_offset 5, -32
	.cfi_offset 6, -28
	.cfi_offset 7, -24
	.cfi_offset 8, -20
	.cfi_offset 9, -16
	.cfi_offset 10, -12
	.cfi_offset 11, -8
	.cfi_offset 14, -4
	.loc 4 218 0 discriminator 1
	ldr	ip, [sp, #60]
	cmp	ip, #0
	ldmlefd	sp!, {r4, r5, r6, r7, r8, r9, r10, fp, pc}
	ldr	r6, [sp, #36]
	mov	r7, #0
.LVL44:
.L32:
.LBB273:
	.loc 4 218 0 is_stmt 0 discriminator 4
	ldrb	ip, [r1]	@ zero_extendqisi2
	ldrb	lr, [r2]	@ zero_extendqisi2
	ldrb	r8, [r1, #1]	@ zero_extendqisi2
	ldrb	r5, [r2, #1]	@ zero_extendqisi2
	ldrb	r4, [r1, #2]	@ zero_extendqisi2
	ldrb	r9, [r2, #2]	@ zero_extendqisi2
	ldrb	r10, [r2, #3]	@ zero_extendqisi2
	orr	r8, ip, r8, asl #8
	orr	r5, lr, r5, asl #8
	orr	ip, r8, r4, asl #16
	ldrb	lr, [r3]	@ zero_extendqisi2
	ldrb	r4, [r3, #1]	@ zero_extendqisi2
	orr	r5, r5, r9, asl #16
	ldrb	fp, [r1, #3]	@ zero_extendqisi2
	orr	r5, r5, r10, asl #24
	ldr	r9, .L36
	ldrb	r10, [r3, #2]	@ zero_extendqisi2
	orr	r4, lr, r4, asl #8
	orr	r8, ip, fp, asl #24
.LVL45:
	ldrb	lr, [r6]	@ zero_extendqisi2
	mov	ip, r9
	orr	r4, r4, r10, asl #16
	ldrb	r10, [r6, #1]	@ zero_extendqisi2
	ldrb	fp, [r3, #3]	@ zero_extendqisi2
	and	r9, r9, r8
	and	ip, ip, r5
	add	ip, r9, ip
	orr	lr, lr, r10, asl #8
	ldr	r9, .L36+4
	ldrb	r10, [r6, #2]	@ zero_extendqisi2
	orr	r4, r4, fp, asl #24
.LVL46:
	ldrb	fp, [r6, #3]	@ zero_extendqisi2
	add	r9, ip, r9
	orr	r10, lr, r10, asl #16
	ldr	ip, .L36+8
	orr	r10, r10, fp, asl #24
.LVL47:
	ldr	lr, .L36
	ldr	fp, .L36+8
	and	ip, ip, r8
	ldr	r8, .L36
.LVL48:
	and	fp, fp, r5
	and	lr, lr, r4
	ldr	r5, .L36+8
.LVL49:
	and	r8, r8, r10
	add	lr, r9, lr
	mov	ip, ip, lsr #2
.LVL50:
	add	lr, lr, r8
	add	ip, ip, fp, lsr #2
.LVL51:
	mov	r8, r5
	ldr	r9, .L36+12
.LVL52:
	and	r5, r5, r4
	and	r8, r8, r10
	mov	lr, lr, lsr #2
	add	ip, ip, r5, lsr #2
	ldr	r4, [r0]
.LVL53:
	add	ip, ip, r8, lsr #2
	and	r9, r9, lr
	add	r9, ip, r9
.LVL54:
.LBB274:
.LBB275:
	.loc 2 33 0 is_stmt 1
	ldr	lr, .L36+16
	eor	r10, r4, r9
.LVL55:
	and	lr, lr, r10
	orr	r9, r4, r9
.LVL56:
	sub	r9, r9, lr, lsr #1
.LBE275:
.LBE274:
	.loc 4 218 0 discriminator 4
	str	r9, [r0]
.LVL57:
	ldrb	ip, [r1, #4]	@ zero_extendqisi2
	ldrb	lr, [r2, #4]	@ zero_extendqisi2
	ldrb	r8, [r1, #5]	@ zero_extendqisi2
	ldrb	r5, [r2, #5]	@ zero_extendqisi2
	ldrb	r4, [r1, #6]	@ zero_extendqisi2
.LVL58:
	ldrb	r9, [r2, #6]	@ zero_extendqisi2
	ldrb	r10, [r2, #7]	@ zero_extendqisi2
	orr	r8, ip, r8, asl #8
	orr	r5, lr, r5, asl #8
	orr	ip, r8, r4, asl #16
	ldrb	lr, [r3, #4]	@ zero_extendqisi2
	ldrb	r4, [r3, #5]	@ zero_extendqisi2
	orr	r5, r5, r9, asl #16
	ldrb	fp, [r1, #7]	@ zero_extendqisi2
	orr	r5, r5, r10, asl #24
	ldr	r9, .L36
	ldrb	r10, [r3, #6]	@ zero_extendqisi2
	orr	r4, lr, r4, asl #8
	orr	r8, ip, fp, asl #24
.LVL59:
	ldrb	lr, [r6, #4]	@ zero_extendqisi2
	mov	ip, r9
	orr	r4, r4, r10, asl #16
	ldrb	r10, [r6, #5]	@ zero_extendqisi2
	and	r9, r9, r8
	ldrb	fp, [r3, #7]	@ zero_extendqisi2
	and	ip, ip, r5
	add	ip, r9, ip
	orr	lr, lr, r10, asl #8
	ldr	r9, .L36+4
	ldrb	r10, [r6, #6]	@ zero_extendqisi2
	orr	r4, r4, fp, asl #24
.LVL60:
	ldrb	fp, [r6, #7]	@ zero_extendqisi2
	add	r9, ip, r9
	orr	r10, lr, r10, asl #16
	ldr	ip, .L36+8
	orr	r10, r10, fp, asl #24
.LVL61:
	ldr	lr, .L36
	ldr	fp, .L36+8
	and	ip, ip, r8
	ldr	r8, .L36
.LVL62:
	and	lr, lr, r4
	and	fp, fp, r5
	ldr	r5, .L36+8
.LVL63:
	and	r8, r8, r10
	add	lr, r9, lr
	mov	ip, ip, lsr #2
.LVL64:
	add	lr, lr, r8
	ldr	r9, .L36+12
.LVL65:
	mov	r8, r5
	add	ip, ip, fp, lsr #2
.LVL66:
	and	r5, r5, r4
	mov	lr, lr, lsr #2
	and	r8, r8, r10
	add	ip, ip, r5, lsr #2
	and	r9, r9, lr
	add	ip, ip, r8, lsr #2
	add	r9, ip, r9
.LBE273:
	.loc 4 218 0 is_stmt 0 discriminator 1
	ldr	ip, [sp, #60]
	.loc 4 218 0 discriminator 4
	add	r7, r7, #1
.LVL67:
	.loc 4 218 0 discriminator 1
	cmp	r7, ip
	ldr	ip, [sp, #44]
.LBB278:
	.loc 4 218 0 discriminator 4
	ldr	r4, [r0, #4]
.LVL68:
	add	r1, r1, ip
.LVL69:
	ldr	ip, [sp, #48]
.LBB276:
.LBB277:
	.loc 2 33 0 is_stmt 1
	ldr	lr, .L36+16
	add	r2, r2, ip
.LVL70:
	ldr	ip, [sp, #52]
	eor	r10, r4, r9
.LVL71:
	add	r3, r3, ip
.LVL72:
	ldr	ip, [sp, #56]
	orr	r9, r4, r9
.LVL73:
	and	lr, lr, r10
	add	r6, r6, ip
.LVL74:
	ldr	ip, [sp, #40]
	sub	r9, r9, lr, lsr #1
.LBE277:
.LBE276:
	.loc 4 218 0 discriminator 4
	str	r9, [r0, #4]
	add	r0, r0, ip
.LBE278:
	.loc 4 218 0 is_stmt 0 discriminator 1
	bne	.L32
	ldmfd	sp!, {r4, r5, r6, r7, r8, r9, r10, fp, pc}
.L37:
	.align	2
.L36:
	.word	50529027
	.word	33686018
	.word	-50529028
	.word	252645135
	.word	-16843010
	.cfi_endproc
.LFE92:
	.size	avg_pixels8_l4_8, .-avg_pixels8_l4_8
	.align	2
	.type	put_no_rnd_pixels8_l2_8, %function
put_no_rnd_pixels8_l2_8:
.LFB96:
	.loc 4 219 0 is_stmt 1
	.cfi_startproc
	@ args = 12, pretend = 0, frame = 0
	@ frame_needed = 0, uses_anonymous_args = 0
.LVL75:
	stmfd	sp!, {r4, r5, r6, r7, r8, r9, r10, fp, lr}
	.cfi_def_cfa_offset 36
	.cfi_offset 4, -36
	.cfi_offset 5, -32
	.cfi_offset 6, -28
	.cfi_offset 7, -24
	.cfi_offset 8, -20
	.cfi_offset 9, -16
	.cfi_offset 10, -12
	.cfi_offset 11, -8
	.cfi_offset 14, -4
	.loc 4 219 0
	ldr	r4, [sp, #44]
	ldr	r6, [sp, #36]
	.loc 4 219 0 is_stmt 0 discriminator 1
	cmp	r4, #0
	.loc 4 219 0
	ldr	r7, [sp, #40]
	.loc 4 219 0 discriminator 1
	ldmlefd	sp!, {r4, r5, r6, r7, r8, r9, r10, fp, pc}
	mov	r5, #0
.LVL76:
.L40:
.LBB284:
	.loc 4 219 0 discriminator 4
	ldrb	r10, [r1, #1]	@ zero_extendqisi2
	ldrb	r9, [r2, #1]	@ zero_extendqisi2
	ldrb	lr, [r1]	@ zero_extendqisi2
	ldrb	r8, [r2]	@ zero_extendqisi2
	ldrb	ip, [r1, #2]	@ zero_extendqisi2
	ldrb	fp, [r2, #2]	@ zero_extendqisi2
	orr	lr, lr, r10, asl #8
	orr	r8, r8, r9, asl #8
	ldrb	r10, [r1, #3]	@ zero_extendqisi2
	ldrb	r9, [r2, #3]	@ zero_extendqisi2
	orr	r8, r8, fp, asl #16
	orr	lr, lr, ip, asl #16
	orr	ip, lr, r10, asl #24
.LVL77:
	orr	lr, r8, r9, asl #24
.LVL78:
.LBB285:
.LBB286:
	.loc 2 38 0 is_stmt 1
	ldr	r8, .L44
	eor	r9, lr, ip
	and	r8, r8, r9
	and	ip, ip, lr
.LVL79:
	add	ip, ip, r8, lsr #1
.LBE286:
.LBE285:
	.loc 4 219 0 discriminator 4
	str	ip, [r0]
.LVL80:
	ldrb	r10, [r1, #5]	@ zero_extendqisi2
	ldrb	r9, [r2, #5]	@ zero_extendqisi2
	ldrb	lr, [r1, #4]	@ zero_extendqisi2
.LVL81:
	ldrb	r8, [r2, #4]	@ zero_extendqisi2
	ldrb	ip, [r1, #6]	@ zero_extendqisi2
	ldrb	fp, [r2, #6]	@ zero_extendqisi2
	orr	lr, lr, r10, asl #8
	orr	r8, r8, r9, asl #8
	ldrb	r10, [r1, #7]	@ zero_extendqisi2
	ldrb	r9, [r2, #7]	@ zero_extendqisi2
	orr	lr, lr, ip, asl #16
	orr	r8, r8, fp, asl #16
	orr	ip, lr, r10, asl #24
.LVL82:
	orr	lr, r8, r9, asl #24
.LVL83:
.LBB287:
.LBB288:
	.loc 2 38 0
	ldr	r8, .L44
	eor	r9, lr, ip
.LBE288:
.LBE287:
.LBE284:
	.loc 4 219 0 discriminator 4
	add	r5, r5, #1
.LVL84:
.LBB291:
.LBB290:
.LBB289:
	.loc 2 38 0
	and	ip, ip, lr
.LVL85:
	and	r8, r8, r9
	add	ip, ip, r8, lsr #1
.LBE289:
.LBE290:
.LBE291:
	.loc 4 219 0 discriminator 1
	cmp	r5, r4
.LBB292:
	.loc 4 219 0 is_stmt 0 discriminator 4
	str	ip, [r0, #4]
.LVL86:
	add	r1, r1, r6
	add	r2, r2, r7
	add	r0, r0, r3
.LBE292:
	.loc 4 219 0 discriminator 1
	bne	.L40
	ldmfd	sp!, {r4, r5, r6, r7, r8, r9, r10, fp, pc}
.L45:
	.align	2
.L44:
	.word	-16843010
	.cfi_endproc
.LFE96:
	.size	put_no_rnd_pixels8_l2_8, .-put_no_rnd_pixels8_l2_8
	.align	2
	.type	put_pixels8_l4_8, %function
put_pixels8_l4_8:
.LFB98:
	.loc 4 219 0 is_stmt 1
	.cfi_startproc
	@ args = 28, pretend = 0, frame = 0
	@ frame_needed = 0, uses_anonymous_args = 0
.LVL87:
	stmfd	sp!, {r4, r5, r6, r7, r8, r9, r10, fp, lr}
	.cfi_def_cfa_offset 36
	.cfi_offset 4, -36
	.cfi_offset 5, -32
	.cfi_offset 6, -28
	.cfi_offset 7, -24
	.cfi_offset 8, -20
	.cfi_offset 9, -16
	.cfi_offset 10, -12
	.cfi_offset 11, -8
	.cfi_offset 14, -4
	.loc 4 219 0 discriminator 1
	ldr	ip, [sp, #60]
	cmp	ip, #0
	ldmlefd	sp!, {r4, r5, r6, r7, r8, r9, r10, fp, pc}
	ldr	r6, [sp, #36]
	mov	r7, #0
.LVL88:
.L48:
.LBB293:
	.loc 4 219 0 is_stmt 0 discriminator 3
	ldrb	ip, [r1]	@ zero_extendqisi2
	ldrb	lr, [r2]	@ zero_extendqisi2
	ldrb	r8, [r1, #1]	@ zero_extendqisi2
	ldrb	r5, [r2, #1]	@ zero_extendqisi2
	ldrb	r4, [r1, #2]	@ zero_extendqisi2
	ldrb	r9, [r2, #2]	@ zero_extendqisi2
	ldrb	r10, [r2, #3]	@ zero_extendqisi2
	orr	r8, ip, r8, asl #8
	orr	r5, lr, r5, asl #8
	orr	ip, r8, r4, asl #16
	ldrb	lr, [r3]	@ zero_extendqisi2
	ldrb	r4, [r3, #1]	@ zero_extendqisi2
	orr	r5, r5, r9, asl #16
	ldrb	fp, [r1, #3]	@ zero_extendqisi2
	orr	r5, r5, r10, asl #24
	ldr	r9, .L52
	ldrb	r10, [r3, #2]	@ zero_extendqisi2
	orr	r4, lr, r4, asl #8
	orr	r8, ip, fp, asl #24
.LVL89:
	ldrb	lr, [r6]	@ zero_extendqisi2
	mov	ip, r9
	orr	r4, r4, r10, asl #16
	ldrb	r10, [r6, #1]	@ zero_extendqisi2
	ldrb	fp, [r3, #3]	@ zero_extendqisi2
	and	r9, r9, r8
	and	ip, ip, r5
	add	ip, r9, ip
	orr	lr, lr, r10, asl #8
	ldr	r9, .L52+4
	ldrb	r10, [r6, #2]	@ zero_extendqisi2
	orr	r4, r4, fp, asl #24
.LVL90:
	ldrb	fp, [r6, #3]	@ zero_extendqisi2
	add	r9, ip, r9
	orr	r10, lr, r10, asl #16
	ldr	ip, .L52+8
	orr	r10, r10, fp, asl #24
.LVL91:
	ldr	lr, .L52
	ldr	fp, .L52+8
	and	ip, ip, r8
	ldr	r8, .L52
.LVL92:
	and	fp, fp, r5
	and	lr, lr, r4
	ldr	r5, .L52+8
.LVL93:
	and	r8, r8, r10
	add	lr, r9, lr
	mov	ip, ip, lsr #2
.LVL94:
	add	lr, lr, r8
	add	ip, ip, fp, lsr #2
.LVL95:
	mov	r8, r5
	ldr	r9, .L52+12
.LVL96:
	and	r5, r5, r4
	and	r8, r8, r10
	mov	lr, lr, lsr #2
	add	ip, ip, r5, lsr #2
	add	ip, ip, r8, lsr #2
	and	r9, r9, lr
	add	r9, ip, r9
	str	r9, [r0]
.LVL97:
	ldrb	ip, [r1, #4]	@ zero_extendqisi2
	ldrb	lr, [r2, #4]	@ zero_extendqisi2
	ldrb	r8, [r1, #5]	@ zero_extendqisi2
	ldrb	r5, [r2, #5]	@ zero_extendqisi2
	ldrb	r4, [r1, #6]	@ zero_extendqisi2
.LVL98:
	ldrb	r9, [r2, #6]	@ zero_extendqisi2
	ldrb	r10, [r2, #7]	@ zero_extendqisi2
.LVL99:
	orr	r8, ip, r8, asl #8
	orr	r5, lr, r5, asl #8
	orr	ip, r8, r4, asl #16
	ldrb	lr, [r3, #4]	@ zero_extendqisi2
	ldrb	r4, [r3, #5]	@ zero_extendqisi2
	orr	r5, r5, r9, asl #16
	ldrb	fp, [r1, #7]	@ zero_extendqisi2
	orr	r5, r5, r10, asl #24
	ldr	r9, .L52
	ldrb	r10, [r3, #6]	@ zero_extendqisi2
	orr	r4, lr, r4, asl #8
	orr	r8, ip, fp, asl #24
.LVL100:
	ldrb	lr, [r6, #4]	@ zero_extendqisi2
	mov	ip, r9
	orr	r4, r4, r10, asl #16
	ldrb	r10, [r6, #5]	@ zero_extendqisi2
	ldrb	fp, [r3, #7]	@ zero_extendqisi2
	and	r9, r9, r8
	and	ip, ip, r5
	add	ip, r9, ip
	orr	lr, lr, r10, asl #8
	ldr	r9, .L52+4
	ldrb	r10, [r6, #6]	@ zero_extendqisi2
	orr	r4, r4, fp, asl #24
.LVL101:
	ldrb	fp, [r6, #7]	@ zero_extendqisi2
	add	r9, ip, r9
	orr	r10, lr, r10, asl #16
	ldr	ip, .L52+8
	orr	r10, r10, fp, asl #24
.LVL102:
	ldr	lr, .L52
	ldr	fp, .L52+8
	and	ip, ip, r8
	ldr	r8, .L52
.LVL103:
	and	fp, fp, r5
	and	lr, lr, r4
	ldr	r5, .L52+8
.LVL104:
	add	lr, r9, lr
	and	r8, r8, r10
	mov	ip, ip, lsr #2
.LVL105:
	add	lr, lr, r8
	ldr	r9, .L52+12
.LVL106:
	mov	r8, r5
	add	ip, ip, fp, lsr #2
.LVL107:
	and	r5, r5, r4
	mov	lr, lr, lsr #2
	add	ip, ip, r5, lsr #2
	and	r8, r8, r10
	and	r9, r9, lr
	add	ip, ip, r8, lsr #2
.LBE293:
	.loc 4 219 0 discriminator 1
	ldr	lr, [sp, #60]
.LBB294:
	.loc 4 219 0 discriminator 3
	add	r9, ip, r9
	ldr	ip, [sp, #44]
.LBE294:
	add	r7, r7, #1
.LVL108:
	add	r1, r1, ip
.LVL109:
	ldr	ip, [sp, #48]
	.loc 4 219 0 discriminator 1
	cmp	r7, lr
	add	r2, r2, ip
.LVL110:
	ldr	ip, [sp, #52]
.LBB295:
	.loc 4 219 0 discriminator 3
	str	r9, [r0, #4]
.LVL111:
	add	r3, r3, ip
	ldr	ip, [sp, #56]
	add	r6, r6, ip
	ldr	ip, [sp, #40]
	add	r0, r0, ip
.LBE295:
	.loc 4 219 0 discriminator 1
	bne	.L48
	ldmfd	sp!, {r4, r5, r6, r7, r8, r9, r10, fp, pc}
.L53:
	.align	2
.L52:
	.word	50529027
	.word	33686018
	.word	-50529028
	.word	252645135
	.cfi_endproc
.LFE98:
	.size	put_pixels8_l4_8, .-put_pixels8_l4_8
	.align	2
	.type	put_no_rnd_pixels8_l4_8, %function
put_no_rnd_pixels8_l4_8:
.LFB99:
	.loc 4 219 0 is_stmt 1
	.cfi_startproc
	@ args = 28, pretend = 0, frame = 0
	@ frame_needed = 0, uses_anonymous_args = 0
.LVL112:
	stmfd	sp!, {r4, r5, r6, r7, r8, r9, r10, fp, lr}
	.cfi_def_cfa_offset 36
	.cfi_offset 4, -36
	.cfi_offset 5, -32
	.cfi_offset 6, -28
	.cfi_offset 7, -24
	.cfi_offset 8, -20
	.cfi_offset 9, -16
	.cfi_offset 10, -12
	.cfi_offset 11, -8
	.cfi_offset 14, -4
	.loc 4 219 0 discriminator 1
	ldr	ip, [sp, #60]
	cmp	ip, #0
	ldmlefd	sp!, {r4, r5, r6, r7, r8, r9, r10, fp, pc}
	ldr	r6, [sp, #36]
	mov	r7, #0
.LVL113:
.L56:
.LBB296:
	.loc 4 219 0 is_stmt 0 discriminator 3
	ldrb	ip, [r1]	@ zero_extendqisi2
	ldrb	lr, [r2]	@ zero_extendqisi2
	ldrb	r8, [r1, #1]	@ zero_extendqisi2
	ldrb	r5, [r2, #1]	@ zero_extendqisi2
	ldrb	r4, [r1, #2]	@ zero_extendqisi2
	ldrb	r9, [r2, #2]	@ zero_extendqisi2
	ldrb	r10, [r2, #3]	@ zero_extendqisi2
	orr	r8, ip, r8, asl #8
	orr	r5, lr, r5, asl #8
	orr	ip, r8, r4, asl #16
	ldrb	lr, [r3]	@ zero_extendqisi2
	ldrb	r4, [r3, #1]	@ zero_extendqisi2
	orr	r5, r5, r9, asl #16
	ldrb	fp, [r1, #3]	@ zero_extendqisi2
	orr	r5, r5, r10, asl #24
	ldr	r9, .L60
	ldrb	r10, [r3, #2]	@ zero_extendqisi2
	orr	r4, lr, r4, asl #8
	orr	r8, ip, fp, asl #24
.LVL114:
	ldrb	lr, [r6]	@ zero_extendqisi2
	mov	ip, r9
	orr	r4, r4, r10, asl #16
	ldrb	r10, [r6, #1]	@ zero_extendqisi2
	ldrb	fp, [r3, #3]	@ zero_extendqisi2
	and	r9, r9, r8
	and	ip, ip, r5
	add	ip, r9, ip
	orr	lr, lr, r10, asl #8
	ldr	r9, .L60+4
	ldrb	r10, [r6, #2]	@ zero_extendqisi2
	orr	r4, r4, fp, asl #24
.LVL115:
	ldrb	fp, [r6, #3]	@ zero_extendqisi2
	add	r9, ip, r9
	orr	r10, lr, r10, asl #16
	ldr	ip, .L60+8
	orr	r10, r10, fp, asl #24
.LVL116:
	ldr	lr, .L60
	ldr	fp, .L60+8
	and	ip, ip, r8
	ldr	r8, .L60
.LVL117:
	and	fp, fp, r5
	and	lr, lr, r4
	ldr	r5, .L60+8
.LVL118:
	and	r8, r8, r10
	add	lr, r9, lr
	mov	ip, ip, lsr #2
.LVL119:
	add	lr, lr, r8
	add	ip, ip, fp, lsr #2
.LVL120:
	mov	r8, r5
	ldr	r9, .L60+12
.LVL121:
	and	r5, r5, r4
	and	r8, r8, r10
	mov	lr, lr, lsr #2
	add	ip, ip, r5, lsr #2
	add	ip, ip, r8, lsr #2
	and	r9, r9, lr
	add	r9, ip, r9
	str	r9, [r0]
.LVL122:
	ldrb	ip, [r1, #4]	@ zero_extendqisi2
	ldrb	lr, [r2, #4]	@ zero_extendqisi2
	ldrb	r8, [r1, #5]	@ zero_extendqisi2
	ldrb	r5, [r2, #5]	@ zero_extendqisi2
	ldrb	r4, [r1, #6]	@ zero_extendqisi2
.LVL123:
	ldrb	r9, [r2, #6]	@ zero_extendqisi2
	ldrb	r10, [r2, #7]	@ zero_extendqisi2
.LVL124:
	orr	r8, ip, r8, asl #8
	orr	r5, lr, r5, asl #8
	orr	ip, r8, r4, asl #16
	ldrb	lr, [r3, #4]	@ zero_extendqisi2
	ldrb	r4, [r3, #5]	@ zero_extendqisi2
	orr	r5, r5, r9, asl #16
	ldrb	fp, [r1, #7]	@ zero_extendqisi2
	orr	r5, r5, r10, asl #24
	ldr	r9, .L60
	ldrb	r10, [r3, #6]	@ zero_extendqisi2
	orr	r4, lr, r4, asl #8
	orr	r8, ip, fp, asl #24
.LVL125:
	ldrb	lr, [r6, #4]	@ zero_extendqisi2
	mov	ip, r9
	orr	r4, r4, r10, asl #16
	ldrb	r10, [r6, #5]	@ zero_extendqisi2
	ldrb	fp, [r3, #7]	@ zero_extendqisi2
	and	r9, r9, r8
	and	ip, ip, r5
	add	ip, r9, ip
	orr	lr, lr, r10, asl #8
	ldr	r9, .L60+4
	ldrb	r10, [r6, #6]	@ zero_extendqisi2
	orr	r4, r4, fp, asl #24
.LVL126:
	ldrb	fp, [r6, #7]	@ zero_extendqisi2
	add	r9, ip, r9
	orr	r10, lr, r10, asl #16
	ldr	ip, .L60+8
	orr	r10, r10, fp, asl #24
.LVL127:
	ldr	lr, .L60
	ldr	fp, .L60+8
	and	ip, ip, r8
	ldr	r8, .L60
.LVL128:
	and	fp, fp, r5
	and	lr, lr, r4
	ldr	r5, .L60+8
.LVL129:
	add	lr, r9, lr
	and	r8, r8, r10
	mov	ip, ip, lsr #2
.LVL130:
	add	lr, lr, r8
	ldr	r9, .L60+12
.LVL131:
	mov	r8, r5
	add	ip, ip, fp, lsr #2
.LVL132:
	and	r5, r5, r4
	mov	lr, lr, lsr #2
	add	ip, ip, r5, lsr #2
	and	r8, r8, r10
	and	r9, r9, lr
	add	ip, ip, r8, lsr #2
.LBE296:
	.loc 4 219 0 discriminator 1
	ldr	lr, [sp, #60]
.LBB297:
	.loc 4 219 0 discriminator 3
	add	r9, ip, r9
	ldr	ip, [sp, #44]
.LBE297:
	add	r7, r7, #1
.LVL133:
	add	r1, r1, ip
.LVL134:
	ldr	ip, [sp, #48]
	.loc 4 219 0 discriminator 1
	cmp	r7, lr
	add	r2, r2, ip
.LVL135:
	ldr	ip, [sp, #52]
.LBB298:
	.loc 4 219 0 discriminator 3
	str	r9, [r0, #4]
.LVL136:
	add	r3, r3, ip
	ldr	ip, [sp, #56]
	add	r6, r6, ip
	ldr	ip, [sp, #40]
	add	r0, r0, ip
.LBE298:
	.loc 4 219 0 discriminator 1
	bne	.L56
	ldmfd	sp!, {r4, r5, r6, r7, r8, r9, r10, fp, pc}
.L61:
	.align	2
.L60:
	.word	50529027
	.word	16843009
	.word	-50529028
	.word	252645135
	.cfi_endproc
.LFE99:
	.size	put_no_rnd_pixels8_l4_8, .-put_no_rnd_pixels8_l4_8
	.align	2
	.type	put_mpeg4_qpel8_h_lowpass, %function
put_mpeg4_qpel8_h_lowpass:
.LFB102:
	.file 5 "libavcodec/qpeldsp.c"
	.loc 5 695 0 is_stmt 1
	.cfi_startproc
	@ args = 4, pretend = 0, frame = 0
	@ frame_needed = 0, uses_anonymous_args = 0
.LVL137:
	stmfd	sp!, {r4, r5, r6, r7, r8, r9, r10, fp, lr}
	.cfi_def_cfa_offset 36
	.cfi_offset 4, -36
	.cfi_offset 5, -32
	.cfi_offset 6, -28
	.cfi_offset 7, -24
	.cfi_offset 8, -20
	.cfi_offset 9, -16
	.cfi_offset 10, -12
	.cfi_offset 11, -8
	.cfi_offset 14, -4
	.loc 5 695 0
	ldr	r7, [sp, #36]
	.loc 5 695 0 is_stmt 0 discriminator 1
	cmp	r7, #0
	ldmlefd	sp!, {r4, r5, r6, r7, r8, r9, r10, fp, pc}
	ldr	r6, .L68
	add	r8, r1, #1
.LPIC9:
	ldr	r6, [pc, r6]		@ tls_load_dot_plus_eight
	mov	r9, #0
	.loc 5 695 0 discriminator 3
	add	r6, r6, #1024
.LVL138:
.L64:
	ldrb	fp, [r1, #2]	@ zero_extendqisi2
	ldrb	ip, [r8, #-1]	@ zero_extendqisi2
	ldrb	r10, [r1, #1]	@ zero_extendqisi2
	ldrb	lr, [r1, #3]	@ zero_extendqisi2
	add	r4, ip, fp
	sub	r4, r4, r4, asl #2
	add	ip, ip, r10
	mov	r5, r4, asl #1
	add	r10, r10, lr
	add	r4, ip, ip, asl #2
	ldrb	ip, [r1, #4]	@ zero_extendqisi2
	add	r4, r5, r4, asl #2
	add	r10, r10, r10, asl #1
	add	lr, r4, r10
	add	ip, fp, ip
	rsb	ip, ip, lr
	add	ip, ip, #16
	ldrb	ip, [r6, ip, asr #5]	@ zero_extendqisi2
	strb	ip, [r0]
	ldrb	r5, [r8, #-1]	@ zero_extendqisi2
	ldrb	fp, [r1, #3]	@ zero_extendqisi2
	ldrb	r10, [r1, #1]	@ zero_extendqisi2
	ldrb	r4, [r1, #2]	@ zero_extendqisi2
	ldrb	lr, [r1, #4]	@ zero_extendqisi2
	add	fp, r5, fp
	sub	fp, fp, fp, asl #2
	add	r4, r10, r4
	mov	ip, fp, asl #1
	add	r5, r5, lr
	ldrb	fp, [r1, #5]	@ zero_extendqisi2
	add	r4, r4, r4, asl #2
	add	r4, ip, r4, asl #2
	add	r5, r5, r5, asl #1
	add	lr, r4, r5
	add	ip, r10, fp
	rsb	ip, ip, lr
	add	ip, ip, #16
	ldrb	ip, [r6, ip, asr #5]	@ zero_extendqisi2
	strb	ip, [r0, #1]
	ldrb	r4, [r1, #1]	@ zero_extendqisi2
	ldrb	r5, [r1, #4]	@ zero_extendqisi2
	ldrb	ip, [r1, #2]	@ zero_extendqisi2
	ldrb	lr, [r1, #3]	@ zero_extendqisi2
	ldrb	fp, [r8, #-1]	@ zero_extendqisi2
	ldrb	r10, [r1, #5]	@ zero_extendqisi2
	add	r5, r4, r5
	add	lr, ip, lr
	sub	r5, r5, r5, asl #2
	ldrb	ip, [r1, #6]	@ zero_extendqisi2
	mov	r5, r5, asl #1
	add	lr, lr, lr, asl #2
	add	r10, fp, r10
	add	r4, r5, lr, asl #2
	add	r10, r10, r10, asl #1
	add	lr, r4, r10
	add	ip, fp, ip
	rsb	ip, ip, lr
	add	ip, ip, #16
	ldrb	ip, [r6, ip, asr #5]	@ zero_extendqisi2
	strb	ip, [r0, #2]
	ldrb	lr, [r1, #2]	@ zero_extendqisi2
	ldrb	r10, [r1, #5]	@ zero_extendqisi2
	ldrb	ip, [r1, #3]	@ zero_extendqisi2
	ldrb	r4, [r1, #4]	@ zero_extendqisi2
	ldrb	fp, [r1, #6]	@ zero_extendqisi2
	ldrb	r5, [r1, #1]	@ zero_extendqisi2
	add	r10, lr, r10
	sub	r10, r10, r10, asl #2
	add	r4, ip, r4
	add	r5, r5, fp
	mov	ip, r10, asl #1
	ldrb	fp, [r1, #7]	@ zero_extendqisi2
	ldrb	r10, [r8, #-1]	@ zero_extendqisi2
	add	r4, r4, r4, asl #2
	add	r4, ip, r4, asl #2
	add	r5, r5, r5, asl #1
	add	lr, r4, r5
	add	ip, r10, fp
	rsb	ip, ip, lr
	add	ip, ip, #16
	ldrb	ip, [r6, ip, asr #5]	@ zero_extendqisi2
	strb	ip, [r0, #3]
	ldrb	lr, [r1, #3]	@ zero_extendqisi2
	ldrb	r10, [r1, #6]	@ zero_extendqisi2
	ldrb	ip, [r1, #4]	@ zero_extendqisi2
	ldrb	r4, [r1, #5]	@ zero_extendqisi2
	ldrb	fp, [r1, #7]	@ zero_extendqisi2
	ldrb	r5, [r1, #2]	@ zero_extendqisi2
	add	r10, lr, r10
	sub	r10, r10, r10, asl #2
	add	r4, ip, r4
	add	r5, r5, fp
	mov	ip, r10, asl #1
	ldrb	fp, [r1, #8]	@ zero_extendqisi2
	ldrb	r10, [r1, #1]	@ zero_extendqisi2
	add	r4, r4, r4, asl #2
	add	r4, ip, r4, asl #2
	add	r5, r5, r5, asl #1
	add	lr, r4, r5
	add	ip, r10, fp
	rsb	ip, ip, lr
	add	ip, ip, #16
	ldrb	ip, [r6, ip, asr #5]	@ zero_extendqisi2
	strb	ip, [r0, #4]
	ldrb	r4, [r1, #4]	@ zero_extendqisi2
	ldrb	r5, [r1, #7]	@ zero_extendqisi2
	ldrb	ip, [r1, #5]	@ zero_extendqisi2
	ldrb	lr, [r1, #6]	@ zero_extendqisi2
	ldrb	fp, [r1, #8]	@ zero_extendqisi2
	ldrb	r10, [r1, #3]	@ zero_extendqisi2
	add	r5, r4, r5
	add	lr, ip, lr
	sub	r5, r5, r5, asl #2
	ldrb	ip, [r1, #2]	@ zero_extendqisi2
	mov	r5, r5, asl #1
	add	lr, lr, lr, asl #2
	add	r10, r10, fp
	add	r4, r5, lr, asl #2
	add	r10, r10, r10, asl #1
	add	lr, r4, r10
	add	ip, fp, ip
	rsb	ip, ip, lr
	add	ip, ip, #16
	ldrb	ip, [r6, ip, asr #5]	@ zero_extendqisi2
	strb	ip, [r0, #5]
	ldrb	r5, [r1, #8]	@ zero_extendqisi2
	ldrb	fp, [r1, #5]	@ zero_extendqisi2
	ldrb	r10, [r1, #7]	@ zero_extendqisi2
	ldrb	r4, [r1, #6]	@ zero_extendqisi2
	ldrb	lr, [r1, #4]	@ zero_extendqisi2
	add	fp, fp, r5
	sub	fp, fp, fp, asl #2
	add	r4, r4, r10
	mov	ip, fp, asl #1
	add	r5, r5, lr
	ldrb	fp, [r1, #3]	@ zero_extendqisi2
	add	r4, r4, r4, asl #2
	add	r4, ip, r4, asl #2
	add	r5, r5, r5, asl #1
	add	lr, r4, r5
	add	ip, r10, fp
	rsb	ip, ip, lr
	add	ip, ip, #16
	ldrb	ip, [r6, ip, asr #5]	@ zero_extendqisi2
	strb	ip, [r0, #6]
	ldrb	ip, [r1, #8]	@ zero_extendqisi2
	ldrb	fp, [r1, #6]	@ zero_extendqisi2
	ldrb	r10, [r1, #7]	@ zero_extendqisi2
	ldrb	lr, [r1, #5]	@ zero_extendqisi2
	add	r4, ip, fp
	sub	r4, r4, r4, asl #2
	add	ip, r10, ip
	mov	r5, r4, asl #1
	add	r10, r10, lr
	add	r4, ip, ip, asl #2
	ldrb	ip, [r1, #4]	@ zero_extendqisi2
	add	r4, r5, r4, asl #2
	add	r10, r10, r10, asl #1
	add	lr, r4, r10
	add	ip, fp, ip
	rsb	ip, ip, lr
	add	r9, r9, #1
.LVL139:
	add	ip, ip, #16
	ldrb	ip, [r6, ip, asr #5]	@ zero_extendqisi2
	.loc 5 695 0 discriminator 1
	cmp	r9, r7
	.loc 5 695 0 discriminator 3
	strb	ip, [r0, #7]
	add	r8, r8, r3
	add	r1, r1, r3
.LVL140:
	add	r0, r0, r2
.LVL141:
	.loc 5 695 0 discriminator 1
	bne	.L64
	ldmfd	sp!, {r4, r5, r6, r7, r8, r9, r10, fp, pc}
.L69:
	.align	2
.L68:
	.word	ff_crop_tab(GOT_PREL)+(.-(.LPIC9+8))
	.cfi_endproc
.LFE102:
	.size	put_mpeg4_qpel8_h_lowpass, .-put_mpeg4_qpel8_h_lowpass
	.align	2
	.type	put_mpeg4_qpel8_v_lowpass, %function
put_mpeg4_qpel8_v_lowpass:
.LFB103:
	.loc 5 695 0 is_stmt 1
	.cfi_startproc
	@ args = 0, pretend = 0, frame = 80
	@ frame_needed = 0, uses_anonymous_args = 0
.LVL142:
	stmfd	sp!, {r4, r5, r6, r7, r8, r9, r10, fp, lr}
	.cfi_def_cfa_offset 36
	.cfi_offset 4, -36
	.cfi_offset 5, -32
	.cfi_offset 6, -28
	.cfi_offset 7, -24
	.cfi_offset 8, -20
	.cfi_offset 9, -16
	.cfi_offset 10, -12
	.cfi_offset 11, -8
	.cfi_offset 14, -4
	add	ip, r1, r3
	sub	sp, sp, #84
	.cfi_def_cfa_offset 120
	str	ip, [sp, #16]
	add	ip, ip, r3
	mov	lr, ip
	.loc 5 695 0
	str	r0, [sp, #8]
.LVL143:
	str	ip, [sp, #20]
	mov	ip, r0
	add	r0, r0, r2
.LVL144:
	mov	r4, r0
	str	r0, [sp, #60]
	add	r0, lr, r3
	mov	lr, r0
	str	r0, [sp, #24]
	add	r0, r4, r2
	mov	r4, r0
	str	r0, [sp, #56]
	add	r0, lr, r3
	mov	lr, r0
	str	r0, [sp, #28]
	add	r0, r4, r2
	add	lr, lr, r3
	mov	r4, r0
	mov	r5, lr
	str	lr, [sp, #32]
	add	lr, r4, r2
	mov	r4, lr
	str	lr, [sp, #48]
	add	lr, r5, r3
	mov	r5, lr
	str	r0, [sp, #52]
	str	lr, [sp, #72]
	ldr	r0, .L74
	add	lr, r4, r2
	mov	r4, lr
	str	lr, [sp, #44]
	add	lr, r5, r3
	mov	r5, lr
.LPIC11:
	ldr	r0, [pc, r0]		@ tls_load_dot_plus_eight
	str	lr, [sp, #68]
	add	lr, r4, r2
	add	r3, r5, r3
.LVL145:
	mov	r4, lr
	str	r3, [sp, #64]
	add	r3, r4, r2
.LBB299:
	.loc 5 695 0 is_stmt 0 discriminator 3
	add	r2, r0, #1024
.LVL146:
	sub	r1, r1, #1
.LVL147:
	str	r3, [sp, #36]
	mov	r10, r2
	add	r3, ip, #8
	str	lr, [sp, #40]
	str	r1, [sp, #12]
	str	r3, [sp, #76]
.LVL148:
.L71:
	ldr	r3, [sp, #12]
	ldr	r7, [sp, #72]
	ldrb	r1, [r3, #1]!	@ zero_extendqisi2
.LVL149:
	str	r3, [sp, #12]
.LVL150:
	ldr	r3, [sp, #20]
.LVL151:
	ldrb	r8, [r3], #1	@ zero_extendqisi2
	str	r3, [sp, #20]
	ldr	r3, [sp, #16]
	add	r5, r1, r8
	ldrb	r9, [r3], #1	@ zero_extendqisi2
	str	r3, [sp, #16]
.LVL152:
	ldr	r3, [sp, #24]
	add	r4, r1, r9
	ldrb	fp, [r3], #1	@ zero_extendqisi2
	str	r3, [sp, #24]
.LVL153:
	ldr	r3, [sp, #28]
	sub	r5, r5, r5, asl #2
	ldrb	lr, [r3], #1	@ zero_extendqisi2
	str	r3, [sp, #28]
.LVL154:
	ldr	r3, [sp, #32]
	mov	r5, r5, asl #1
	add	r2, r9, fp
	add	r4, r4, r4, asl #2
	ldrb	r0, [r3], #1	@ zero_extendqisi2
	add	r4, r5, r4, asl #2
	add	r2, r2, r2, asl #1
	str	r3, [sp, #32]
.LVL155:
	add	ip, r1, fp
	ldrb	r3, [r7], #1	@ zero_extendqisi2
	add	r2, r4, r2
	add	r4, r8, lr
	str	r3, [sp, #4]
	rsb	r2, r4, r2
	add	r3, r9, r8
	ldr	r4, [sp, #64]
	sub	ip, ip, ip, asl #2
	mov	ip, ip, asl #1
	add	r3, r3, r3, asl #2
	add	r3, ip, r3, asl #2
	ldrb	ip, [r4], #1	@ zero_extendqisi2
	ldr	r5, [sp, #68]
	str	r4, [sp, #64]
	add	r4, r1, lr
	add	r6, r9, lr
	add	r4, r4, r4, asl #1
	str	r7, [sp, #72]
.LVL156:
	sub	r6, r6, r6, asl #2
	ldrb	r7, [r5], #1	@ zero_extendqisi2
	add	r3, r3, r4
	add	r4, r8, fp
	str	r5, [sp, #68]
.LVL157:
	add	r4, r4, r4, asl #2
	mov	r5, r6, asl #1
	add	r6, r5, r4, asl #2
	add	r4, r1, r0
	add	r5, r8, r0
	str	r7, [sp]
.LVL158:
	add	r2, r2, #16
	ldr	r7, [sp, #8]
	add	r4, r4, r4, asl #1
	ldrb	r2, [r10, r2, asr #5]	@ zero_extendqisi2
	add	r4, r6, r4
	sub	r5, r5, r5, asl #2
	add	r6, fp, lr
	strb	r2, [r7], #1
	add	r6, r6, r6, asl #2
	add	r2, r9, r0
	mov	r5, r5, asl #1
	add	r5, r5, r6, asl #2
	rsb	r3, r2, r3
	ldr	r6, [sp, #4]
	str	r7, [sp, #8]
.LVL159:
	ldr	r2, [sp, #4]
	add	r6, fp, r6
	add	r2, r9, r2
	add	r2, r2, r2, asl #1
	ldr	r7, [sp]
.LVL160:
	add	r5, r5, r2
	sub	r6, r6, r6, asl #2
	add	r2, lr, r0
	add	r2, r2, r2, asl #2
	mov	r6, r6, asl #1
	add	r6, r6, r2, asl #2
	add	r3, r3, #16
	add	r2, lr, r7
	ldr	r7, [sp, #60]
	ldrb	r3, [r10, r3, asr #5]	@ zero_extendqisi2
	strb	r3, [r7], #1
	str	r7, [sp, #60]
	ldr	r7, [sp, #4]
	sub	r2, r2, r2, asl #2
	add	r3, r1, r7
	rsb	r4, r3, r4
	ldr	r3, [sp]
	mov	r2, r2, asl #1
	add	r1, r1, r3
.LVL161:
	add	r3, r8, r3
	add	r3, r3, r3, asl #1
	add	r6, r6, r3
	add	r3, r0, r7
	rsb	r5, r1, r5
	add	r3, r3, r3, asl #2
	add	r1, fp, ip
	add	r2, r2, r3, asl #2
	add	r1, r1, r1, asl #1
	add	r2, r2, r1
	mov	r1, r7
	ldr	r7, [sp]
	add	r9, r9, ip
.LVL162:
	add	r3, r0, ip
	rsb	r6, r9, r6
	add	r0, r0, r7
.LVL163:
	add	r9, r1, r7
	add	r4, r4, #16
	ldr	r7, [sp, #56]
	ldrb	r4, [r10, r4, asr #5]	@ zero_extendqisi2
	sub	r3, r3, r3, asl #2
	strb	r4, [r7], #1
	add	r9, r9, r9, asl #2
	str	r7, [sp, #56]
	mov	r3, r3, asl #1
	ldr	r7, [sp]
	add	r5, r5, #16
	add	r3, r3, r9, asl #2
	mov	r9, r1
	add	r1, r1, ip
	ldrb	r4, [r10, r5, asr #5]	@ zero_extendqisi2
	sub	r1, r1, r1, asl #2
	add	r5, r7, ip
	mov	r1, r1, asl #1
	add	r5, r5, r5, asl #2
	add	r5, r1, r5, asl #2
	ldr	r1, [sp, #52]
	add	r8, r8, ip
.LVL164:
	strb	r4, [r1], #1
	add	r6, r6, #16
	str	r1, [sp, #52]
	ldr	r1, [sp, #48]
	ldrb	r4, [r10, r6, asr #5]	@ zero_extendqisi2
	add	ip, lr, ip
.LVL165:
	rsb	r2, r8, r2
	strb	r4, [r1], #1
	add	ip, ip, ip, asl #1
	str	r1, [sp, #48]
	add	r2, r2, #16
	ldr	r1, [sp, #44]
	ldrb	r2, [r10, r2, asr #5]	@ zero_extendqisi2
	add	r7, fp, r7
	add	r3, r3, ip
	strb	r2, [r1], #1
	rsb	r3, r7, r3
.LBE299:
	.loc 5 695 0 discriminator 1
	ldr	r2, [sp, #76]
	ldr	r7, [sp, #8]
.LBB300:
	.loc 5 695 0 discriminator 3
	add	r0, r0, r0, asl #1
	add	r0, r5, r0
	add	lr, lr, r9
.LVL166:
	add	r3, r3, #16
	rsb	r0, lr, r0
.LBE300:
	.loc 5 695 0 discriminator 1
	cmp	r7, r2
.LBB301:
	.loc 5 695 0 discriminator 3
	ldr	r2, [sp, #40]
	ldrb	r3, [r10, r3, asr #5]	@ zero_extendqisi2
	add	r0, r0, #16
	strb	r3, [r2], #1
	str	r1, [sp, #44]
	ldrb	r3, [r10, r0, asr #5]	@ zero_extendqisi2
	str	r2, [sp, #40]
	ldr	r2, [sp, #36]
	strb	r3, [r2], #1
	str	r2, [sp, #36]
.LVL167:
.LBE301:
	.loc 5 695 0 discriminator 1
	bne	.L71
	.loc 5 695 0
	add	sp, sp, #84
	.cfi_def_cfa_offset 36
	@ sp needed
	ldmfd	sp!, {r4, r5, r6, r7, r8, r9, r10, fp, pc}
.LVL168:
.L75:
	.align	2
.L74:
	.word	ff_crop_tab(GOT_PREL)+(.-(.LPIC11+8))
	.cfi_endproc
.LFE103:
	.size	put_mpeg4_qpel8_v_lowpass, .-put_mpeg4_qpel8_v_lowpass
	.align	2
	.type	put_mpeg4_qpel16_h_lowpass, %function
put_mpeg4_qpel16_h_lowpass:
.LFB104:
	.loc 5 695 0 is_stmt 1
	.cfi_startproc
	@ args = 4, pretend = 0, frame = 0
	@ frame_needed = 0, uses_anonymous_args = 0
.LVL169:
	stmfd	sp!, {r4, r5, r6, r7, r8, r9, r10, fp, lr}
	.cfi_def_cfa_offset 36
	.cfi_offset 4, -36
	.cfi_offset 5, -32
	.cfi_offset 6, -28
	.cfi_offset 7, -24
	.cfi_offset 8, -20
	.cfi_offset 9, -16
	.cfi_offset 10, -12
	.cfi_offset 11, -8
	.cfi_offset 14, -4
	.loc 5 695 0 discriminator 1
	ldr	ip, [sp, #36]
	cmp	ip, #0
	ldmlefd	sp!, {r4, r5, r6, r7, r8, r9, r10, fp, pc}
	ldr	r7, .L82
	add	fp, r1, r3
.LPIC13:
	ldr	r7, [pc, r7]		@ tls_load_dot_plus_eight
	mov	r8, fp
	.loc 5 695 0 is_stmt 0 discriminator 3
	add	r7, r7, #1024
	.loc 5 695 0 discriminator 1
	mov	r10, #0
	rsb	r9, r3, #0
.LVL170:
.L78:
	.loc 5 695 0 discriminator 3
	ldrb	lr, [r8, r9]	@ zero_extendqisi2
	ldrb	r6, [r1, #2]	@ zero_extendqisi2
	ldrb	r4, [r1, #1]	@ zero_extendqisi2
	ldrb	ip, [r1, #3]	@ zero_extendqisi2
	add	r5, lr, r6
	sub	r5, r5, r5, asl #2
	add	lr, lr, r4
	mov	r5, r5, asl #1
	add	ip, r4, ip
	add	lr, lr, lr, asl #2
	ldrb	r4, [r1, #4]	@ zero_extendqisi2
	add	lr, r5, lr, asl #2
	add	ip, ip, ip, asl #1
	add	lr, lr, ip
	add	r6, r6, r4
	rsb	r6, r6, lr
	add	r6, r6, #16
	ldrb	ip, [r7, r6, asr #5]	@ zero_extendqisi2
	strb	ip, [r0]
	ldrb	r5, [r8, r9]	@ zero_extendqisi2
	ldrb	r4, [r1, #3]	@ zero_extendqisi2
	ldrb	r6, [r1, #1]	@ zero_extendqisi2
	ldrb	lr, [r1, #2]	@ zero_extendqisi2
	ldrb	ip, [r1, #4]	@ zero_extendqisi2
	add	r4, r5, r4
	add	lr, r6, lr
	sub	r4, r4, r4, asl #2
	mov	r4, r4, asl #1
	add	ip, r5, ip
	add	lr, lr, lr, asl #2
	ldrb	r5, [r1, #5]	@ zero_extendqisi2
	add	lr, r4, lr, asl #2
	add	ip, ip, ip, asl #1
	add	lr, lr, ip
	add	r6, r6, r5
	rsb	r6, r6, lr
	add	r6, r6, #16
	ldrb	ip, [r7, r6, asr #5]	@ zero_extendqisi2
	strb	ip, [r0, #1]
	ldrb	ip, [r1, #4]	@ zero_extendqisi2
	ldrb	r4, [r1, #1]	@ zero_extendqisi2
	ldrb	r6, [r1, #2]	@ zero_extendqisi2
	ldrb	lr, [r1, #3]	@ zero_extendqisi2
	ldrb	r5, [r8, r9]	@ zero_extendqisi2
	add	r4, r4, ip
	ldrb	ip, [r1, #5]	@ zero_extendqisi2
	add	lr, r6, lr
	sub	r4, r4, r4, asl #2
	ldrb	r6, [r1, #6]	@ zero_extendqisi2
	mov	r4, r4, asl #1
	add	ip, r5, ip
	add	lr, lr, lr, asl #2
	add	lr, r4, lr, asl #2
	add	ip, ip, ip, asl #1
	add	lr, lr, ip
	add	r5, r5, r6
	rsb	r5, r5, lr
	add	r5, r5, #16
	ldrb	ip, [r7, r5, asr #5]	@ zero_extendqisi2
	strb	ip, [r0, #2]
	ldrb	ip, [r1, #5]	@ zero_extendqisi2
	ldrb	r4, [r1, #2]	@ zero_extendqisi2
	ldrb	r6, [r1, #3]	@ zero_extendqisi2
	ldrb	lr, [r1, #4]	@ zero_extendqisi2
	ldrb	r5, [r1, #1]	@ zero_extendqisi2
	add	r4, r4, ip
	ldrb	ip, [r1, #6]	@ zero_extendqisi2
	add	lr, r6, lr
	sub	r4, r4, r4, asl #2
	ldrb	r6, [r1, #7]	@ zero_extendqisi2
	mov	r4, r4, asl #1
	add	ip, r5, ip
	add	lr, lr, lr, asl #2
	ldrb	r5, [r8, r9]	@ zero_extendqisi2
	add	lr, r4, lr, asl #2
	add	ip, ip, ip, asl #1
	add	lr, lr, ip
	add	r5, r5, r6
	rsb	r5, r5, lr
	add	r5, r5, #16
	ldrb	ip, [r7, r5, asr #5]	@ zero_extendqisi2
	strb	ip, [r0, #3]
	ldrb	ip, [r1, #6]	@ zero_extendqisi2
	ldrb	r4, [r1, #3]	@ zero_extendqisi2
	ldrb	r6, [r1, #4]	@ zero_extendqisi2
	ldrb	lr, [r1, #5]	@ zero_extendqisi2
	ldrb	r5, [r1, #2]	@ zero_extendqisi2
	add	r4, r4, ip
	ldrb	ip, [r1, #7]	@ zero_extendqisi2
	add	lr, r6, lr
	sub	r4, r4, r4, asl #2
	ldrb	r6, [r1, #8]	@ zero_extendqisi2
	mov	r4, r4, asl #1
	add	ip, r5, ip
	add	lr, lr, lr, asl #2
	ldrb	r5, [r1, #1]	@ zero_extendqisi2
	add	lr, r4, lr, asl #2
	add	ip, ip, ip, asl #1
	add	lr, lr, ip
	add	r5, r5, r6
	rsb	r5, r5, lr
	add	r5, r5, #16
	ldrb	ip, [r7, r5, asr #5]	@ zero_extendqisi2
	strb	ip, [r0, #4]
	ldrb	ip, [r1, #7]	@ zero_extendqisi2
	ldrb	r4, [r1, #4]	@ zero_extendqisi2
	ldrb	r6, [r1, #5]	@ zero_extendqisi2
	ldrb	lr, [r1, #6]	@ zero_extendqisi2
	ldrb	r5, [r1, #3]	@ zero_extendqisi2
	add	r4, r4, ip
	ldrb	ip, [r1, #8]	@ zero_extendqisi2
	add	lr, r6, lr
	sub	r4, r4, r4, asl #2
	ldrb	r6, [r1, #9]	@ zero_extendqisi2
	mov	r4, r4, asl #1
	add	ip, r5, ip
	add	lr, lr, lr, asl #2
	ldrb	r5, [r1, #2]	@ zero_extendqisi2
	add	lr, r4, lr, asl #2
	add	ip, ip, ip, asl #1
	add	lr, lr, ip
	add	r5, r5, r6
	rsb	r5, r5, lr
	add	r5, r5, #16
	ldrb	ip, [r7, r5, asr #5]	@ zero_extendqisi2
	strb	ip, [r0, #5]
	ldrb	ip, [r1, #8]	@ zero_extendqisi2
	ldrb	r4, [r1, #5]	@ zero_extendqisi2
	ldrb	r6, [r1, #6]	@ zero_extendqisi2
	ldrb	lr, [r1, #7]	@ zero_extendqisi2
	ldrb	r5, [r1, #4]	@ zero_extendqisi2
	add	r4, r4, ip
	ldrb	ip, [r1, #9]	@ zero_extendqisi2
	add	lr, r6, lr
	sub	r4, r4, r4, asl #2
	ldrb	r6, [r1, #10]	@ zero_extendqisi2
	mov	r4, r4, asl #1
	add	ip, r5, ip
	add	lr, lr, lr, asl #2
	ldrb	r5, [r1, #3]	@ zero_extendqisi2
	add	lr, r4, lr, asl #2
	add	ip, ip, ip, asl #1
	add	lr, lr, ip
	add	r5, r5, r6
	rsb	r5, r5, lr
	add	r5, r5, #16
	ldrb	ip, [r7, r5, asr #5]	@ zero_extendqisi2
	strb	ip, [r0, #6]
	ldrb	r6, [r1, #8]	@ zero_extendqisi2
	ldrb	r4, [r1, #7]	@ zero_extendqisi2
	ldrb	lr, [r1, #6]	@ zero_extendqisi2
	ldrb	ip, [r1, #9]	@ zero_extendqisi2
	ldrb	r5, [r1, #5]	@ zero_extendqisi2
	add	lr, lr, ip
	ldrb	ip, [r1, #10]	@ zero_extendqisi2
	add	r4, r4, r6
	sub	lr, lr, lr, asl #2
	ldrb	r6, [r1, #11]	@ zero_extendqisi2
	mov	lr, lr, asl #1
	add	ip, r5, ip
	add	r4, r4, r4, asl #2
	ldrb	r5, [r1, #4]	@ zero_extendqisi2
	add	r4, lr, r4, asl #2
	add	ip, ip, ip, asl #1
	add	r4, r4, ip
	add	r5, r5, r6
	rsb	r5, r5, r4
	add	r5, r5, #16
	ldrb	ip, [r7, r5, asr #5]	@ zero_extendqisi2
	strb	ip, [r0, #7]
	ldrb	ip, [r1, #10]	@ zero_extendqisi2
	ldrb	r5, [r1, #7]	@ zero_extendqisi2
	ldrb	r4, [r1, #8]	@ zero_extendqisi2
	ldrb	lr, [r1, #9]	@ zero_extendqisi2
	ldrb	r6, [r1, #6]	@ zero_extendqisi2
	add	r5, r5, ip
	ldrb	ip, [r1, #11]	@ zero_extendqisi2
	add	lr, r4, lr
	sub	r5, r5, r5, asl #2
	ldrb	r4, [r1, #5]	@ zero_extendqisi2
	add	lr, lr, lr, asl #2
	add	ip, r6, ip
	mov	r5, r5, asl #1
	ldrb	r6, [r1, #12]	@ zero_extendqisi2
	add	r5, r5, lr, asl #2
	add	ip, ip, ip, asl #1
	add	r5, r5, ip
	add	r4, r4, r6
	rsb	r4, r4, r5
	add	r4, r4, #16
	ldrb	ip, [r7, r4, asr #5]	@ zero_extendqisi2
	strb	ip, [r0, #8]
	ldrb	ip, [r1, #11]	@ zero_extendqisi2
	ldrb	r5, [r1, #8]	@ zero_extendqisi2
	ldrb	r4, [r1, #9]	@ zero_extendqisi2
	ldrb	lr, [r1, #10]	@ zero_extendqisi2
	ldrb	r6, [r1, #7]	@ zero_extendqisi2
	add	r5, r5, ip
	ldrb	ip, [r1, #12]	@ zero_extendqisi2
	add	lr, r4, lr
	sub	r5, r5, r5, asl #2
	ldrb	r4, [r1, #6]	@ zero_extendqisi2
	add	lr, lr, lr, asl #2
	add	ip, r6, ip
	mov	r5, r5, asl #1
	ldrb	r6, [r1, #13]	@ zero_extendqisi2
	add	r5, r5, lr, asl #2
	add	ip, ip, ip, asl #1
	add	r5, r5, ip
	add	r4, r4, r6
	rsb	r4, r4, r5
	add	r4, r4, #16
	ldrb	ip, [r7, r4, asr #5]	@ zero_extendqisi2
	strb	ip, [r0, #9]
	ldrb	ip, [r1, #12]	@ zero_extendqisi2
	ldrb	r5, [r1, #9]	@ zero_extendqisi2
	ldrb	r4, [r1, #10]	@ zero_extendqisi2
	ldrb	lr, [r1, #11]	@ zero_extendqisi2
	ldrb	r6, [r1, #8]	@ zero_extendqisi2
	add	r5, r5, ip
	ldrb	ip, [r1, #13]	@ zero_extendqisi2
	add	lr, r4, lr
	sub	r5, r5, r5, asl #2
	ldrb	r4, [r1, #7]	@ zero_extendqisi2
	add	lr, lr, lr, asl #2
	add	ip, r6, ip
	mov	r5, r5, asl #1
	ldrb	r6, [r1, #14]	@ zero_extendqisi2
	add	r5, r5, lr, asl #2
	add	ip, ip, ip, asl #1
	add	r5, r5, ip
	add	r4, r4, r6
	rsb	r4, r4, r5
	add	r4, r4, #16
	ldrb	ip, [r7, r4, asr #5]	@ zero_extendqisi2
	strb	ip, [r0, #10]
	ldrb	ip, [r1, #13]	@ zero_extendqisi2
	ldrb	r5, [r1, #10]	@ zero_extendqisi2
	ldrb	r4, [r1, #11]	@ zero_extendqisi2
	ldrb	lr, [r1, #12]	@ zero_extendqisi2
	ldrb	r6, [r1, #9]	@ zero_extendqisi2
	add	r5, r5, ip
	ldrb	ip, [r1, #14]	@ zero_extendqisi2
	add	lr, r4, lr
	sub	r5, r5, r5, asl #2
	ldrb	r4, [r1, #8]	@ zero_extendqisi2
	add	lr, lr, lr, asl #2
	add	ip, r6, ip
	mov	r5, r5, asl #1
	ldrb	r6, [r1, #15]	@ zero_extendqisi2
	add	r5, r5, lr, asl #2
	add	ip, ip, ip, asl #1
	add	r5, r5, ip
	add	r4, r4, r6
	rsb	r4, r4, r5
	add	r4, r4, #16
	ldrb	ip, [r7, r4, asr #5]	@ zero_extendqisi2
	strb	ip, [r0, #11]
	ldrb	ip, [r1, #14]	@ zero_extendqisi2
	ldrb	r5, [r1, #11]	@ zero_extendqisi2
	ldrb	r4, [r1, #12]	@ zero_extendqisi2
	ldrb	lr, [r1, #13]	@ zero_extendqisi2
	ldrb	r6, [r1, #10]	@ zero_extendqisi2
	add	r5, r5, ip
	ldrb	ip, [r1, #15]	@ zero_extendqisi2
	add	lr, r4, lr
	sub	r5, r5, r5, asl #2
	ldrb	r4, [r1, #9]	@ zero_extendqisi2
	add	lr, lr, lr, asl #2
	add	ip, r6, ip
	mov	r5, r5, asl #1
	ldrb	r6, [r1, #16]	@ zero_extendqisi2
	add	r5, r5, lr, asl #2
	add	ip, ip, ip, asl #1
	add	r5, r5, ip
	add	r4, r4, r6
	rsb	r4, r4, r5
	add	r4, r4, #16
	ldrb	ip, [r7, r4, asr #5]	@ zero_extendqisi2
	strb	ip, [r0, #12]
	ldrb	ip, [r1, #15]	@ zero_extendqisi2
	ldrb	r4, [r1, #12]	@ zero_extendqisi2
	ldrb	r6, [r1, #13]	@ zero_extendqisi2
	ldrb	lr, [r1, #14]	@ zero_extendqisi2
	ldrb	r5, [r1, #16]	@ zero_extendqisi2
	add	r4, r4, ip
	ldrb	ip, [r1, #11]	@ zero_extendqisi2
	add	lr, r6, lr
	sub	r4, r4, r4, asl #2
	ldrb	r6, [r1, #10]	@ zero_extendqisi2
	mov	r4, r4, asl #1
	add	ip, ip, r5
	add	lr, lr, lr, asl #2
	add	lr, r4, lr, asl #2
	add	ip, ip, ip, asl #1
	add	lr, lr, ip
	add	r5, r5, r6
	rsb	r5, r5, lr
	add	r5, r5, #16
	ldrb	ip, [r7, r5, asr #5]	@ zero_extendqisi2
	strb	ip, [r0, #13]
	ldrb	r6, [r1, #15]	@ zero_extendqisi2
	ldrb	r4, [r1, #16]	@ zero_extendqisi2
	ldrb	ip, [r1, #13]	@ zero_extendqisi2
	ldrb	r5, [r1, #14]	@ zero_extendqisi2
	ldrb	lr, [r1, #12]	@ zero_extendqisi2
	add	ip, ip, r4
	add	r5, r5, r6
	sub	ip, ip, ip, asl #2
	add	r5, r5, r5, asl #2
	add	lr, r4, lr
	mov	ip, ip, asl #1
	ldrb	r4, [r1, #11]	@ zero_extendqisi2
	add	ip, ip, r5, asl #2
	add	lr, lr, lr, asl #1
	add	lr, ip, lr
	add	r6, r6, r4
	rsb	r6, r6, lr
	add	r6, r6, #16
	ldrb	ip, [r7, r6, asr #5]	@ zero_extendqisi2
	strb	ip, [r0, #14]
	ldrb	ip, [r1, #16]	@ zero_extendqisi2
	ldrb	r5, [r1, #14]	@ zero_extendqisi2
	ldrb	r6, [r1, #15]	@ zero_extendqisi2
	add	lr, ip, r5
	ldrb	r4, [r1, #13]	@ zero_extendqisi2
	sub	lr, lr, lr, asl #2
	add	ip, r6, ip
	ldrb	r1, [r1, #12]	@ zero_extendqisi2
.LVL171:
	mov	lr, lr, asl #1
	add	ip, ip, ip, asl #2
	add	r4, r6, r4
	add	ip, lr, ip, asl #2
	add	r4, r4, r4, asl #1
	add	r5, r5, r1
	add	r4, ip, r4
	.loc 5 695 0 discriminator 1
	ldr	r1, [sp, #36]
	.loc 5 695 0 discriminator 3
	rsb	r5, r5, r4
	add	r10, r10, #1
.LVL172:
	add	r5, r5, #16
	.loc 5 695 0 discriminator 1
	cmp	r10, r1
	.loc 5 695 0 discriminator 3
	ldrb	r1, [r7, r5, asr #5]	@ zero_extendqisi2
	strb	r1, [r0, #15]
	add	r8, r8, r3
	mov	r1, fp
	add	r0, r0, r2
.LVL173:
	.loc 5 695 0 discriminator 1
	ldmeqfd	sp!, {r4, r5, r6, r7, r8, r9, r10, fp, pc}
.LVL174:
	add	fp, fp, r3
.LVL175:
	b	.L78
.L83:
	.align	2
.L82:
	.word	ff_crop_tab(GOT_PREL)+(.-(.LPIC13+8))
	.cfi_endproc
.LFE104:
	.size	put_mpeg4_qpel16_h_lowpass, .-put_mpeg4_qpel16_h_lowpass
	.align	2
	.type	put_mpeg4_qpel16_v_lowpass, %function
put_mpeg4_qpel16_v_lowpass:
.LFB105:
	.loc 5 695 0 is_stmt 1
	.cfi_startproc
	@ args = 0, pretend = 0, frame = 184
	@ frame_needed = 0, uses_anonymous_args = 0
.LVL176:
	mov	ip, r2, asl #2
	stmfd	sp!, {r4, r5, r6, r7, r8, r9, r10, fp, lr}
	.cfi_def_cfa_offset 36
	.cfi_offset 4, -36
	.cfi_offset 5, -32
	.cfi_offset 6, -28
	.cfi_offset 7, -24
	.cfi_offset 8, -20
	.cfi_offset 9, -16
	.cfi_offset 10, -12
	.cfi_offset 11, -8
	.cfi_offset 14, -4
	mov	lr, r2, asl #1
	mov	r4, ip
	add	fp, lr, r2
	add	r7, r4, r2
	sub	sp, sp, #188
	.cfi_def_cfa_offset 224
.LVL177:
	mov	r9, r7
	mov	r10, fp, asl #2
	str	r10, [sp, #24]
	str	r9, [sp, #56]
	mov	r10, r9, asl #1
	mov	r9, r3, asl #3
	str	lr, [sp, #36]
	str	r9, [sp, #8]
	ldr	lr, .L88
	str	lr, [sp, #16]
	.loc 5 695 0
	str	r1, [sp, #4]
	mov	lr, r10
	ldr	r1, [sp, #8]
.LVL178:
	mov	r10, r3, asl #4
	str	lr, [sp, #72]
	add	lr, lr, r2
	str	r10, [sp, #20]
	str	r0, [sp, #44]
.LVL179:
	str	lr, [sp, #76]
	ldr	r0, [sp, #24]
	rsb	lr, r3, r1
	mov	r10, r2, asl #3
	str	lr, [sp, #28]
	add	lr, r1, r3
	ldr	r1, [sp, #20]
	str	r10, [sp, #12]
	add	r0, r0, r2
	str	lr, [sp, #32]
	sub	r0, r0, #1
	rsb	lr, r3, r1
	ldr	r1, [sp, #12]
	str	r0, [sp, #92]
	ldr	r0, [sp, #24]
	str	r4, [sp, #48]
	str	lr, [sp, #40]
	rsb	lr, r2, r1
	str	lr, [sp, #64]
	add	lr, r1, r2
	sub	r1, r0, #1
	ldr	r0, [sp, #48]
	str	lr, [sp, #68]
	rsb	lr, r2, r2, asl #4
	str	lr, [sp, #96]
	str	r1, [sp, #84]
	ldr	lr, [sp, #16]
	sub	r1, r0, #1
	ldr	r0, [sp, #56]
.LPIC15:
	ldr	lr, [pc, lr]		@ tls_load_dot_plus_eight
	str	r1, [sp, #52]
	sub	r1, r0, #1
	str	lr, [sp, #16]
	ldr	lr, [sp, #36]
	str	r1, [sp, #60]
	ldr	r0, [sp, #76]
	mov	r8, r3, asl #1
	sub	r1, r0, #1
	ldr	r0, [sp, #72]
	add	ip, r8, r3
	str	r1, [sp, #80]
	sub	r1, r0, #1
	str	r1, [sp, #72]
	sub	r1, ip, #1
	str	r1, [sp, #24]
	ldr	r1, [sp, #4]
	mov	r7, ip, asl #2
	add	ip, r1, ip, asl #1
	sub	r1, fp, #1
	str	r1, [sp, #48]
	ldr	r1, [sp, #44]
	mov	r6, r3, asl #2
	add	fp, r1, fp, asl #1
	str	fp, [sp, #76]
	ldr	fp, [sp, #28]
	add	r5, r6, r3
	sub	r0, fp, #1
	str	r0, [sp, #28]
	ldr	r0, [sp, #4]
	mov	r4, r5, asl #1
	add	fp, r0, fp, asl #1
	ldr	r0, [sp, #32]
	add	r10, r7, r3
	sub	r0, r0, #1
	str	r0, [sp, #36]
	ldr	r0, [sp, #8]
	add	r9, r4, r3
	sub	r0, r0, #1
	str	r0, [sp, #32]
	ldr	r0, [sp, #40]
	sub	r3, r3, #1
.LVL180:
	sub	r0, r0, #1
	str	r0, [sp, #40]
	ldr	r0, [sp, #20]
	str	r3, [sp, #8]
	sub	r0, r0, #1
	str	r0, [sp, #20]
	ldr	r0, [sp, #64]
	sub	r8, r8, #1
	sub	r3, r0, #1
.LVL181:
	add	r0, r1, r0, asl #1
	str	r0, [sp, #112]
	ldr	r0, [sp, #68]
	sub	r10, r10, #1
	sub	r0, r0, #1
	str	r0, [sp, #88]
	ldr	r0, [sp, #12]
	sub	r7, r7, #1
	sub	r0, r0, #1
	str	r0, [sp, #12]
	ldr	r0, [sp, #96]
	sub	r6, r6, #1
	sub	r0, r0, #1
	str	r0, [sp, #144]
	ldr	r0, [sp, #4]
	sub	r5, r5, #1
	add	r8, r0, r8
	add	r5, r0, r5
	str	r8, [sp, #56]
	add	r7, r0, r7
	add	r8, r0, r10
	add	r6, r0, r6
	sub	r9, r9, #1
	sub	r4, r4, #1
	str	r8, [sp, #160]
	str	r7, [sp, #164]
	str	r6, [sp, #64]
	str	r5, [sp, #68]
	add	r5, r0, r9
	add	r4, r0, r4
	sub	lr, lr, #1
	str	r5, [sp, #168]
	mov	r5, r0
	ldr	r0, [sp, #92]
	str	r4, [sp, #172]
	add	r4, r1, lr
	str	r4, [sp, #140]
	add	r4, r1, r0
	ldr	r0, [sp, #84]
	str	r4, [sp, #96]
	add	r4, r1, r0
	ldr	r0, [sp, #52]
	str	r4, [sp, #100]
	add	r4, r1, r0
	ldr	r0, [sp, #60]
	str	r4, [sp, #132]
	add	r4, r1, r0
	ldr	r0, [sp, #80]
	str	r4, [sp, #128]
	add	r4, r1, r0
	ldr	r0, [sp, #72]
	str	r4, [sp, #104]
	add	r4, r1, r0
	ldr	r0, [sp, #24]
	str	r4, [sp, #108]
	add	r4, r5, r0
	ldr	r0, [sp, #48]
	sub	ip, ip, #1
	str	ip, [sp, #72]
	add	ip, r1, r0
	ldr	r0, [sp, #76]
	str	ip, [sp, #136]
	sub	ip, r0, #1
	ldr	r0, [sp, #28]
	str	ip, [sp, #124]
	add	ip, r5, r0
	ldr	r0, [sp, #36]
	str	ip, [sp, #76]
	sub	ip, fp, #1
	str	ip, [sp, #156]
	add	ip, r5, r0
	ldr	r0, [sp, #32]
	str	ip, [sp, #84]
	add	ip, r5, r0
	ldr	r0, [sp, #40]
	str	ip, [sp, #80]
	add	ip, r5, r0
	ldr	r0, [sp, #20]
	str	ip, [sp, #152]
	add	ip, r5, r0
	str	r4, [sp, #60]
	str	ip, [sp, #148]
	ldr	r0, [sp, #112]
	add	r3, r1, r3
	str	r3, [sp, #120]
	sub	r3, r0, #1
	ldr	r0, [sp, #88]
	str	r3, [sp, #92]
	add	r3, r1, r0
	ldr	r0, [sp, #12]
	ldr	lr, [sp, #8]
	str	r3, [sp, #112]
	add	r3, r1, r0
	ldr	r0, [sp, #144]
	add	ip, r5, lr
	sub	r2, r2, #1
.LVL182:
	str	r3, [sp, #116]
.LBB302:
	.loc 5 695 0 is_stmt 0 discriminator 3
	ldr	lr, [sp, #16]
	add	r3, r1, r0
	str	r3, [sp, #88]
	add	r3, r1, r2
	str	ip, [sp, #52]
	str	r3, [sp, #144]
	sub	ip, r5, #1
	add	r3, lr, #1024
	add	r2, r1, #16
.LVL183:
	str	ip, [sp, #48]
	str	r2, [sp, #180]
	str	r3, [sp, #4]
.LVL184:
.L85:
	ldr	r3, [sp, #48]
	ldrb	r0, [r3, #1]!	@ zero_extendqisi2
.LVL185:
	str	r3, [sp, #48]
.LVL186:
	ldr	r3, [sp, #56]
.LVL187:
	ldrb	r7, [r3, #1]!	@ zero_extendqisi2
	str	r3, [sp, #56]
	ldr	r3, [sp, #52]
	add	ip, r0, r7
	ldrb	r8, [r3, #1]!	@ zero_extendqisi2
	str	r3, [sp, #52]
.LVL188:
	ldr	r3, [sp, #60]
	add	r1, r0, r8
	ldrb	r6, [r3, #1]!	@ zero_extendqisi2
	str	r3, [sp, #60]
.LVL189:
	ldr	r3, [sp, #64]
	sub	ip, ip, ip, asl #2
	ldrb	r5, [r3, #1]!	@ zero_extendqisi2
	str	r3, [sp, #64]
.LVL190:
	ldr	r3, [sp, #68]
	mov	ip, ip, asl #1
	ldrb	r2, [r3, #1]!	@ zero_extendqisi2
	str	r3, [sp, #68]
	ldr	r3, [sp, #72]
	add	r1, r1, r1, asl #2
	ldrb	r4, [r3, #1]!	@ zero_extendqisi2
	str	r3, [sp, #72]
	ldr	r3, [sp, #76]
	add	r1, ip, r1, asl #2
	ldrb	ip, [r3, #1]!	@ zero_extendqisi2
	add	r10, r0, r6
	str	r3, [sp, #76]
	ldr	r3, [sp, #80]
	mov	lr, r2
.LVL191:
	sub	r10, r10, r10, asl #2
	add	r2, r8, r7
.LVL192:
	add	r9, r8, r6
	str	ip, [sp, #8]
.LVL193:
	add	r2, r2, r2, asl #2
	ldrb	ip, [r3, #1]!	@ zero_extendqisi2
	mov	r10, r10, asl #1
	add	r10, r10, r2, asl #2
	add	r9, r9, r9, asl #1
	add	r2, r0, r5
	str	r3, [sp, #80]
.LVL194:
	ldr	r3, [sp, #84]
	add	r1, r1, r9
	add	r2, r2, r2, asl #1
	add	r9, r7, r5
	add	fp, r8, r5
	add	r2, r10, r2
	rsb	r1, r9, r1
	ldrb	r9, [r3, #1]!	@ zero_extendqisi2
	add	r10, r7, lr
	str	r9, [sp, #36]
	str	r2, [sp, #176]
	add	r9, r7, r6
	sub	fp, fp, fp, asl #2
	str	r3, [sp, #84]
.LVL195:
	ldr	r3, [sp, #172]
	mov	fp, fp, asl #1
	sub	r10, r10, r10, asl #2
	add	r9, r9, r9, asl #2
	add	r9, fp, r9, asl #2
	mov	fp, r10, asl #1
	ldrb	r10, [r3, #1]!	@ zero_extendqisi2
	str	r10, [sp, #16]
	add	r10, r0, lr
	add	r10, r10, r10, asl #1
	add	r9, r9, r10
	add	r10, r6, r5
	add	r10, r10, r10, asl #2
	add	r10, fp, r10, asl #2
	str	r4, [sp, #12]
	add	fp, r6, r4
	ldr	r4, [sp, #4]
.LVL196:
	str	r3, [sp, #172]
.LVL197:
	add	r1, r1, #16
	ldr	r3, [sp, #168]
	ldrb	r1, [r4, r1, asr #5]	@ zero_extendqisi2
	ldr	r4, [sp, #164]
	ldr	r2, [sp, #160]
	str	lr, [sp, #24]
	ldrb	lr, [r3, #1]!	@ zero_extendqisi2
.LVL198:
	str	r3, [sp, #168]
.LVL199:
	ldrb	r3, [r4, #1]!	@ zero_extendqisi2
	str	r4, [sp, #164]
.LVL200:
	ldrb	r4, [r2, #1]!	@ zero_extendqisi2
	str	r2, [sp, #160]
.LVL201:
	ldr	r2, [sp, #156]
	str	r4, [sp, #32]
.LVL202:
	ldrb	r4, [r2, #1]!	@ zero_extendqisi2
	str	r2, [sp, #156]
.LVL203:
	ldr	r2, [sp, #152]
	str	r4, [sp, #20]
.LVL204:
	ldrb	r4, [r2, #1]!	@ zero_extendqisi2
	str	r2, [sp, #152]
.LVL205:
	ldr	r2, [sp, #148]
	str	r4, [sp, #28]
.LVL206:
	ldrb	r4, [r2, #1]!	@ zero_extendqisi2
	str	r4, [sp, #40]
	ldr	r4, [sp, #44]
	str	r2, [sp, #148]
.LVL207:
	strb	r1, [r4], #1
	str	r4, [sp, #44]
.LVL208:
	ldr	r4, [sp, #24]
.LVL209:
	ldr	r2, [sp, #176]
	add	r1, r8, r4
	rsb	r2, r1, r2
	ldr	r1, [sp, #12]
	add	r2, r2, #16
	add	r1, r8, r1
	add	r1, r1, r1, asl #1
	add	r10, r10, r1
	add	r1, r5, r4
	ldr	r4, [sp, #4]
	sub	fp, fp, fp, asl #2
	ldrb	r2, [r4, r2, asr #5]	@ zero_extendqisi2
	ldr	r4, [sp, #144]
	add	r1, r1, r1, asl #2
	strb	r2, [r4, #1]!
	str	r4, [sp, #144]
	ldr	r4, [sp, #12]
	mov	fp, fp, asl #1
	add	r2, r0, r4
	rsb	r9, r2, r9
	ldr	r2, [sp, #8]
	add	fp, fp, r1, asl #2
	add	r0, r0, r2
.LVL210:
	add	r2, r7, r2
	ldr	r1, [sp, #8]
	add	r2, r2, r2, asl #1
	add	fp, fp, r2
	ldr	r2, [sp, #24]
	add	r1, r5, r1
	add	r2, r2, r4
	sub	r1, r1, r1, asl #2
	ldr	r4, [sp, #4]
	rsb	r10, r0, r10
	add	r2, r2, r2, asl #2
	add	r0, r6, ip
	mov	r1, r1, asl #1
	add	r1, r1, r2, asl #2
	add	r0, r0, r0, asl #1
	ldr	r2, [sp, #24]
	add	r9, r9, #16
	ldrb	r9, [r4, r9, asr #5]	@ zero_extendqisi2
	add	r1, r1, r0
	ldr	r4, [sp, #12]
	ldr	r0, [sp, #8]
	add	r2, r2, ip
	add	r0, r4, r0
	sub	r2, r2, r2, asl #2
	add	r8, r8, ip
.LVL211:
	add	r0, r0, r0, asl #2
	mov	r2, r2, asl #1
	rsb	fp, r8, fp
	add	r2, r2, r0, asl #2
	ldr	r8, [sp, #36]
	ldr	r0, [sp, #12]
	mov	r4, r8
	add	r7, r7, r8
.LVL212:
	add	r8, r0, r8
	sub	r8, r8, r8, asl #2
	mov	r0, r8, asl #1
	ldr	r8, [sp, #140]
	add	r10, r10, #16
	strb	r9, [r8, #1]!
	str	r8, [sp, #140]
	ldr	r8, [sp, #4]
	rsb	r1, r7, r1
	ldrb	r9, [r8, r10, asr #5]	@ zero_extendqisi2
	mov	r7, r4
	add	r8, r5, r4
	ldr	r4, [sp, #8]
	add	r8, r8, r8, asl #1
	ldr	r10, [sp, #16]
	add	r2, r2, r8
	add	r8, r4, ip
	add	r8, r8, r8, asl #2
	add	r6, r6, r10
.LVL213:
	add	r0, r0, r8, asl #2
	mov	r8, r10
	add	r10, r4, r10
	ldr	r4, [sp, #136]
	add	fp, fp, #16
	strb	r9, [r4, #1]!
	ldr	r9, [sp, #24]
	str	r4, [sp, #136]
	ldr	r4, [sp, #4]
	add	r9, r9, r8
	ldrb	fp, [r4, fp, asr #5]	@ zero_extendqisi2
	sub	r10, r10, r10, asl #2
	mov	r4, r7
	add	r7, ip, r7
	add	r9, r9, r9, asl #1
	add	r7, r7, r7, asl #2
	mov	r10, r10, asl #1
	add	r0, r0, r9
	add	r10, r10, r7, asl #2
	ldr	r7, [sp, #12]
	ldr	r9, [sp, #132]
	rsb	r2, r6, r2
	strb	fp, [r9, #1]!
	str	r9, [sp, #132]
	ldr	r9, [sp, #16]
	add	r6, ip, lr
	add	fp, r4, r9
	sub	r6, r6, r6, asl #2
	add	fp, fp, fp, asl #2
	mov	r6, r6, asl #1
	add	r8, r7, lr
	add	r6, r6, fp, asl #2
	ldr	fp, [sp, #16]
	mov	r7, r4
	add	r8, r8, r8, asl #1
	ldr	r4, [sp, #4]
	add	r5, r5, lr
.LVL214:
	add	r9, r7, r3
	add	r10, r10, r8
	add	r7, fp, lr
	mov	r8, lr
	add	r1, r1, #16
	ldr	lr, [sp, #128]
.LVL215:
	ldrb	r1, [r4, r1, asr #5]	@ zero_extendqisi2
	strb	r1, [lr, #1]!
	rsb	r0, r5, r0
	str	lr, [sp, #128]
	ldr	r5, [sp, #24]
	ldr	lr, [sp, #32]
	add	r4, r5, r3
	add	r1, fp, lr
	ldr	r5, [sp, #8]
	ldr	fp, [sp, #4]
	sub	r9, r9, r9, asl #2
	add	r7, r7, r7, asl #2
	add	r2, r2, #16
	mov	r9, r9, asl #1
	ldrb	r2, [fp, r2, asr #5]	@ zero_extendqisi2
	add	r5, r5, r3
	add	fp, ip, lr
	rsb	r10, r4, r10
	str	ip, [sp, #24]
.LVL216:
	mov	r4, lr
	mov	ip, lr
.LVL217:
	add	r9, r9, r7, asl #2
	ldr	lr, [sp, #12]
	ldr	r7, [sp, #124]
	add	r5, r5, r5, asl #1
	strb	r2, [r7, #1]!
	add	lr, lr, r4
	add	r6, r6, r5
	add	r4, r8, r3
	str	r8, [sp, #12]
.LVL218:
	mov	r5, r8
	str	r7, [sp, #124]
	ldr	r8, [sp, #20]
.LVL219:
	ldr	r7, [sp, #36]
	add	r5, r5, r8
.LVL220:
	add	r2, r7, r8
	rsb	r6, lr, r6
	add	r8, r3, ip
	ldr	lr, [sp, #20]
	ldr	ip, [sp, #8]
	add	fp, fp, fp, asl #1
	ldr	r7, [sp, #4]
	add	ip, ip, lr
	add	r9, r9, fp
	ldr	lr, [sp, #28]
	ldr	fp, [sp, #16]
	add	r0, r0, #16
	ldrb	r0, [r7, r0, asr #5]	@ zero_extendqisi2
	sub	r1, r1, r1, asl #2
	add	r7, r3, lr
	add	lr, fp, lr
	ldr	fp, [sp, #120]
	add	r4, r4, r4, asl #2
	mov	r1, r1, asl #1
	strb	r0, [fp, #1]!
	add	r1, r1, r4, asl #2
	str	fp, [sp, #120]
	ldr	r4, [sp, #32]
	ldr	fp, [sp, #20]
	add	r10, r10, #16
	add	r0, r4, fp
	ldr	fp, [sp, #4]
	sub	r5, r5, r5, asl #2
	ldrb	r10, [fp, r10, asr #5]	@ zero_extendqisi2
	ldr	fp, [sp, #40]
	add	r2, r2, r2, asl #1
	add	r8, r8, r8, asl #2
	add	r6, r6, #16
	mov	r5, r5, asl #1
	str	r6, [sp, #8]
	rsb	r9, ip, r9
	ldr	r6, [sp, #28]
	add	fp, r4, fp
	ldr	ip, [sp, #24]
	ldr	r4, [sp, #12]
	add	r1, r1, r2
	add	r5, r5, r8, asl #2
	ldr	r2, [sp, #40]
	ldr	r8, [sp, #20]
	add	ip, ip, r6
	add	r2, r4, r2
	add	r4, r8, r6
	ldr	r6, [sp, #116]
	add	lr, lr, lr, asl #1
	strb	r10, [r6, #1]!
	mov	r10, r8
	ldr	r8, [sp, #40]
	str	r6, [sp, #116]
	add	r10, r10, r8
	ldmib	sp, {r6, r8}
	rsb	r1, ip, r1
	ldrb	r6, [r6, r8, asr #5]	@ zero_extendqisi2
	ldr	ip, [sp, #40]
	ldr	r8, [sp, #36]
	add	r5, r5, lr
	sub	r7, r7, r7, asl #2
	ldr	lr, [sp, #28]
	add	r8, r8, ip
	add	r0, r0, r0, asl #2
	mov	r7, r7, asl #1
	str	r8, [sp, #8]
	add	r7, r7, r0, asl #2
	add	r8, lr, ip
	mov	r0, ip
	add	lr, r3, ip
	ldr	ip, [sp, #112]
	add	r9, r9, #16
	strb	r6, [ip, #1]!
	str	ip, [sp, #112]
	ldr	ip, [sp, #4]
	add	r2, r2, r2, asl #1
	ldrb	r6, [ip, r9, asr #5]	@ zero_extendqisi2
	ldr	r9, [sp, #8]
	ldr	ip, [sp, #108]
	rsb	r5, r9, r5
	ldr	r9, [sp, #16]
	sub	fp, fp, fp, asl #2
	add	r4, r4, r4, asl #2
	add	r9, r9, r0
	add	r7, r7, r2
	ldr	r0, [sp, #32]
	ldr	r2, [sp, #28]
	mov	fp, fp, asl #1
	sub	r10, r10, r10, asl #2
	strb	r6, [ip, #1]!
	add	fp, fp, r4, asl #2
	add	r8, r8, r8, asl #2
	str	ip, [sp, #108]
	mov	r10, r10, asl #1
	ldr	r6, [sp, #4]
	ldr	r4, [sp, #12]
	add	r0, r0, r2
	add	r10, r10, r8, asl #2
	ldr	r8, [sp, #20]
	add	ip, r4, r2
	add	r0, r0, r0, asl #1
	ldr	r2, [sp, #104]
	add	r1, r1, #16
	ldrb	r1, [r6, r1, asr #5]	@ zero_extendqisi2
	add	r10, r10, r0
	add	r5, r5, #16
	add	r0, r3, r8
	ldr	r3, [sp, #100]
.LVL221:
	strb	r1, [r2, #1]!
	rsb	r7, r9, r7
	str	r2, [sp, #104]
	ldrb	r2, [r6, r5, asr #5]	@ zero_extendqisi2
	strb	r2, [r3, #1]!
	add	r7, r7, #16
	str	r3, [sp, #100]
	ldr	r3, [sp, #96]
	ldrb	r2, [r6, r7, asr #5]	@ zero_extendqisi2
	add	lr, lr, lr, asl #1
	strb	r2, [r3, #1]!
	add	fp, fp, lr
	str	r3, [sp, #96]
.LBE302:
	.loc 5 695 0 discriminator 1
	ldr	r4, [sp, #44]
	ldr	r3, [sp, #180]
.LBB303:
	.loc 5 695 0 discriminator 3
	rsb	fp, ip, fp
	add	fp, fp, #16
.LBE303:
	.loc 5 695 0 discriminator 1
	cmp	r4, r3
.LBB304:
	.loc 5 695 0 discriminator 3
	ldr	r3, [sp, #92]
	ldrb	r2, [r6, fp, asr #5]	@ zero_extendqisi2
	rsb	r10, r0, r10
	strb	r2, [r3, #1]!
	add	r10, r10, #16
	str	r3, [sp, #92]
	ldr	r3, [sp, #88]
	ldrb	r2, [r6, r10, asr #5]	@ zero_extendqisi2
	strb	r2, [r3, #1]!
	str	r3, [sp, #88]
.LVL222:
.LBE304:
	.loc 5 695 0 discriminator 1
	bne	.L85
	.loc 5 695 0
	add	sp, sp, #188
	.cfi_def_cfa_offset 36
	@ sp needed
	ldmfd	sp!, {r4, r5, r6, r7, r8, r9, r10, fp, pc}
.L89:
	.align	2
.L88:
	.word	ff_crop_tab(GOT_PREL)+(.-(.LPIC15+8))
	.cfi_endproc
.LFE105:
	.size	put_mpeg4_qpel16_v_lowpass, .-put_mpeg4_qpel16_v_lowpass
	.align	2
	.type	put_qpel8_mc20_c, %function
put_qpel8_mc20_c:
.LFB107:
	.loc 5 695 0 is_stmt 1
	.cfi_startproc
	@ args = 0, pretend = 0, frame = 0
	@ frame_needed = 0, uses_anonymous_args = 0
.LVL223:
	str	lr, [sp, #-4]!
	.cfi_def_cfa_offset 4
	.cfi_offset 14, -4
	mov	r3, #8
	sub	sp, sp, #12
	.cfi_def_cfa_offset 16
	.loc 5 695 0
	str	r3, [sp]
	mov	r3, r2
	bl	put_mpeg4_qpel8_h_lowpass(PLT)
.LVL224:
	add	sp, sp, #12
	.cfi_def_cfa_offset 4
	@ sp needed
	ldr	pc, [sp], #4
	.cfi_endproc
.LFE107:
	.size	put_qpel8_mc20_c, .-put_qpel8_mc20_c
	.align	2
	.type	put_qpel8_mc02_c, %function
put_qpel8_mc02_c:
.LFB110:
	.loc 5 695 0
	.cfi_startproc
	@ args = 0, pretend = 0, frame = 152
	@ frame_needed = 0, uses_anonymous_args = 0
.LVL225:
	stmfd	sp!, {r4, r5, r6, r7, r8, r9, r10, fp, lr}
	.cfi_def_cfa_offset 36
	.cfi_offset 4, -36
	.cfi_offset 5, -32
	.cfi_offset 6, -28
	.cfi_offset 7, -24
	.cfi_offset 8, -20
	.cfi_offset 9, -16
	.cfi_offset 10, -12
	.cfi_offset 11, -8
	.cfi_offset 14, -4
.LBB305:
.LBB306:
	.file 6 "libavcodec/copy_block.h"
	.loc 6 64 0
	add	lr, r1, r2
	add	ip, lr, r2
	.loc 6 61 0
	ldrb	r7, [r1, r2]	@ zero_extendqisi2
	ldrb	r5, [ip, #4]	@ zero_extendqisi2
	ldrb	r9, [lr, #1]	@ zero_extendqisi2
	ldrb	r8, [ip, #5]	@ zero_extendqisi2
	ldrb	r6, [lr, #4]	@ zero_extendqisi2
	ldrb	r10, [lr, #5]	@ zero_extendqisi2
	orr	r8, r5, r8, asl #8
	orr	r7, r7, r9, asl #8
	ldrb	r5, [r1]	@ zero_extendqisi2
	ldrb	r9, [r1, #1]	@ zero_extendqisi2
	ldrb	r4, [r1, r2, asl #1]	@ zero_extendqisi2
	ldrb	fp, [ip, #1]	@ zero_extendqisi2
	orr	r10, r6, r10, asl #8
	orr	r9, r5, r9, asl #8
	ldrb	r6, [r1, #4]	@ zero_extendqisi2
	ldrb	r5, [r1, #5]	@ zero_extendqisi2
.LBE306:
.LBE305:
	.loc 5 695 0
	sub	sp, sp, #156
	.cfi_def_cfa_offset 192
.LVL226:
.LBB309:
.LBB307:
	.loc 6 61 0
	orr	r5, r6, r5, asl #8
	orr	r4, r4, fp, asl #8
	ldrb	r6, [ip, #6]	@ zero_extendqisi2
	ldrb	fp, [ip, #2]	@ zero_extendqisi2
	str	r5, [sp, #4]
	ldrb	r5, [lr, #2]	@ zero_extendqisi2
	orr	r8, r8, r6, asl #16
	orr	r4, r4, fp, asl #16
	ldrb	r6, [lr, #6]	@ zero_extendqisi2
	ldrb	fp, [ip, #3]	@ zero_extendqisi2
	orr	r7, r7, r5, asl #16
	ldrb	r5, [r1, #2]	@ zero_extendqisi2
	orr	r4, r4, fp, asl #24
	orr	r6, r10, r6, asl #16
	ldr	fp, [sp, #4]
	ldrb	r10, [r1, #6]	@ zero_extendqisi2
	orr	r5, r9, r5, asl #16
	ldrb	r9, [ip, #7]	@ zero_extendqisi2
	orr	r10, fp, r10, asl #16
	ldrb	fp, [lr, #3]	@ zero_extendqisi2
	orr	r9, r8, r9, asl #24
	ldrb	r8, [lr, #7]	@ zero_extendqisi2
	orr	r7, r7, fp, asl #24
	ldrb	fp, [r1, #3]	@ zero_extendqisi2
	orr	r6, r6, r8, asl #24
	ldrb	r8, [r1, #7]	@ zero_extendqisi2
	orr	r5, r5, fp, asl #24
	.loc 6 64 0
	add	fp, ip, r2
	.loc 6 61 0
	orr	r10, r10, r8, asl #24
	str	r4, [sp, #40]
	.loc 6 62 0
	ldrb	r8, [r1, #8]	@ zero_extendqisi2
	.loc 6 64 0
	add	r4, fp, r2
	.loc 6 62 0
	ldrb	r1, [lr, #8]	@ zero_extendqisi2
.LVL227:
	.loc 6 61 0
	str	r7, [sp, #24]
	str	r6, [sp, #28]
	str	r5, [sp, #8]
	str	r10, [sp, #12]
	ldrb	r7, [fp, #1]	@ zero_extendqisi2
	.loc 6 62 0
	strb	r1, [sp, #32]
	.loc 6 61 0
	str	r9, [sp, #44]
	ldrb	r1, [lr, r2, asl #1]	@ zero_extendqisi2
	ldrb	r9, [r4, #5]	@ zero_extendqisi2
	ldrb	r5, [r4, #4]	@ zero_extendqisi2
	ldrb	r6, [ip, r2, asl #1]	@ zero_extendqisi2
	ldrb	r10, [r4, #1]	@ zero_extendqisi2
	.loc 6 62 0
	strb	r8, [sp, #16]
.LVL228:
	.loc 6 61 0
	ldrb	lr, [fp, #4]	@ zero_extendqisi2
	ldrb	r8, [fp, #5]	@ zero_extendqisi2
	orr	r1, r1, r7, asl #8
	orr	r5, r5, r9, asl #8
	ldrb	r7, [fp, #2]	@ zero_extendqisi2
	ldrb	r9, [r4, #6]	@ zero_extendqisi2
	orr	r6, r6, r10, asl #8
	orr	lr, lr, r8, asl #8
	ldrb	r10, [r4, #2]	@ zero_extendqisi2
	ldrb	r8, [fp, #6]	@ zero_extendqisi2
	orr	r1, r1, r7, asl #16
	orr	r5, r5, r9, asl #16
	ldrb	r7, [fp, #3]	@ zero_extendqisi2
	ldrb	r9, [r4, #7]	@ zero_extendqisi2
	orr	r6, r6, r10, asl #16
	orr	lr, lr, r8, asl #16
	ldrb	r10, [r4, #3]	@ zero_extendqisi2
	ldrb	r8, [fp, #7]	@ zero_extendqisi2
	orr	r7, r1, r7, asl #24
	.loc 6 62 0
	ldrb	ip, [ip, #8]	@ zero_extendqisi2
.LVL229:
	.loc 6 64 0
	add	r1, r4, r2
	.loc 6 61 0
	orr	r5, r5, r9, asl #24
	.loc 6 62 0
	ldrb	r9, [r4, #8]	@ zero_extendqisi2
	.loc 6 61 0
	orr	r6, r6, r10, asl #24
	orr	lr, lr, r8, asl #24
	str	r7, [sp, #56]
	.loc 6 62 0
	strb	ip, [sp, #48]
.LVL230:
	.loc 6 61 0
	ldrb	r7, [r1, #5]	@ zero_extendqisi2
	ldrb	ip, [r1, #4]	@ zero_extendqisi2
	.loc 6 62 0
	strb	r9, [sp, #80]
	ldrb	r9, [fp, #8]	@ zero_extendqisi2
	.loc 6 64 0
	add	r10, r1, r2
	.loc 6 61 0
	str	r6, [sp, #72]
	str	r5, [sp, #76]
	str	lr, [sp, #60]
	ldrb	r5, [r1, #2]	@ zero_extendqisi2
	ldrb	lr, [r1, #3]	@ zero_extendqisi2
	ldrb	r6, [r1, #1]	@ zero_extendqisi2
	.loc 6 62 0
	strb	r9, [sp, #64]
.LVL231:
	.loc 6 61 0
	ldrb	r9, [fp, r2, asl #1]	@ zero_extendqisi2
	.loc 6 64 0
	add	r8, r10, r2
	.loc 6 61 0
	orr	ip, ip, r7, asl #8
	ldrb	r7, [r1, #7]	@ zero_extendqisi2
	str	r7, [sp, #4]
	orr	r6, r9, r6, asl #8
	ldrb	r7, [r8, #1]	@ zero_extendqisi2
	ldrb	r9, [r1, r2, asl #1]	@ zero_extendqisi2
	ldrb	fp, [r1, #6]	@ zero_extendqisi2
	ldrb	r4, [r4, r2, asl #1]	@ zero_extendqisi2
	orr	r7, r9, r7, asl #8
	ldrb	r9, [r10, #1]	@ zero_extendqisi2
	orr	ip, ip, fp, asl #16
	orr	r4, r4, r9, asl #8
	ldrb	fp, [r8, #4]	@ zero_extendqisi2
	ldrb	r9, [r8, #5]	@ zero_extendqisi2
	orr	r6, r6, r5, asl #16
	orr	fp, fp, r9, asl #8
	ldrb	r5, [r10, #4]	@ zero_extendqisi2
	ldrb	r9, [r10, #5]	@ zero_extendqisi2
	orr	r6, r6, lr, asl #24
	orr	r5, r5, r9, asl #8
	ldrb	r9, [r10, #2]	@ zero_extendqisi2
	ldrb	lr, [r8, #2]	@ zero_extendqisi2
	orr	r9, r4, r9, asl #16
	ldrb	r4, [r10, #6]	@ zero_extendqisi2
	orr	r7, r7, lr, asl #16
	orr	r5, r5, r4, asl #16
	ldrb	lr, [r8, #6]	@ zero_extendqisi2
	ldr	r4, [sp, #4]
	orr	fp, fp, lr, asl #16
	orr	ip, ip, r4, asl #24
	ldrb	lr, [r8, #3]	@ zero_extendqisi2
	ldrb	r4, [r10, #3]	@ zero_extendqisi2
	orr	r7, r7, lr, asl #24
	orr	r4, r9, r4, asl #24
	ldrb	lr, [r8, #7]	@ zero_extendqisi2
	ldrb	r9, [r10, #7]	@ zero_extendqisi2
	.loc 6 62 0
	ldrb	r1, [r1, #8]	@ zero_extendqisi2
.LVL232:
	.loc 6 61 0
	orr	fp, fp, lr, asl #24
	orr	r5, r5, r9, asl #24
	.loc 6 62 0
	ldrb	lr, [r8, #8]	@ zero_extendqisi2
	ldrb	r9, [r10, #8]	@ zero_extendqisi2
	.loc 6 64 0
	add	r8, r8, r2
	.loc 6 61 0
	str	r6, [sp, #88]
	str	ip, [sp, #92]
	.loc 6 62 0
	strb	r1, [sp, #96]
.LVL233:
	.loc 6 61 0
	str	r4, [sp, #104]
	str	r5, [sp, #108]
	ldrb	r4, [r10, r2, asl #1]	@ zero_extendqisi2
	.loc 6 62 0
	strb	lr, [sp, #128]
	.loc 6 61 0
	str	r7, [sp, #120]
	str	fp, [sp, #124]
	.loc 6 62 0
	strb	r9, [sp, #112]
.LVL234:
	.loc 6 61 0
	ldrb	r5, [r8, #1]	@ zero_extendqisi2
	ldrb	r1, [r8, #4]	@ zero_extendqisi2
	ldrb	r3, [r8, #5]	@ zero_extendqisi2
	ldrb	lr, [r8, #2]	@ zero_extendqisi2
	ldrb	ip, [r8, #6]	@ zero_extendqisi2
	ldrb	r6, [r8, #3]	@ zero_extendqisi2
	orr	r4, r4, r5, asl #8
	orr	r3, r1, r3, asl #8
	ldrb	r5, [r8, #7]	@ zero_extendqisi2
	orr	r1, r4, lr, asl #16
	orr	r3, r3, ip, asl #16
	orr	lr, r1, r6, asl #24
	orr	ip, r3, r5, asl #24
	.loc 6 62 0
	ldrb	r4, [r8, #8]	@ zero_extendqisi2
.LBE307:
.LBE309:
	.loc 5 695 0 discriminator 1
	add	r1, sp, #8
	mov	r3, #16
.LBB310:
.LBB308:
	.loc 6 61 0
	str	lr, [sp, #136]
	str	ip, [sp, #140]
	.loc 6 62 0
	strb	r4, [sp, #144]
.LVL235:
.LBE308:
.LBE310:
	.loc 5 695 0 discriminator 1
	bl	put_mpeg4_qpel8_v_lowpass(PLT)
.LVL236:
	.loc 5 695 0 is_stmt 0
	add	sp, sp, #156
	.cfi_def_cfa_offset 36
	@ sp needed
	ldmfd	sp!, {r4, r5, r6, r7, r8, r9, r10, fp, pc}
	.cfi_endproc
.LFE110:
	.size	put_qpel8_mc02_c, .-put_qpel8_mc02_c
	.align	2
	.type	put_qpel8_mc22_c, %function
put_qpel8_mc22_c:
.LFB126:
	.loc 5 695 0 is_stmt 1
	.cfi_startproc
	@ args = 0, pretend = 0, frame = 72
	@ frame_needed = 0, uses_anonymous_args = 0
.LVL237:
	stmfd	sp!, {r4, r5, r6, lr}
	.cfi_def_cfa_offset 16
	.cfi_offset 4, -16
	.cfi_offset 5, -12
	.cfi_offset 6, -8
	.cfi_offset 14, -4
	sub	sp, sp, #80
	.cfi_def_cfa_offset 96
	.loc 5 695 0
	mov	r5, r2
	add	r4, sp, #8
	mov	r2, #9
.LVL238:
	mov	r6, r0
	mov	r3, r5
	mov	r0, r4
.LVL239:
	str	r2, [sp]
	mov	r2, #8
	bl	put_mpeg4_qpel8_h_lowpass(PLT)
.LVL240:
	.loc 5 695 0 is_stmt 0 discriminator 1
	mov	r0, r6
	mov	r1, r4
	mov	r2, r5
	mov	r3, #8
	bl	put_mpeg4_qpel8_v_lowpass(PLT)
.LVL241:
	.loc 5 695 0
	add	sp, sp, #80
	.cfi_def_cfa_offset 16
	@ sp needed
	ldmfd	sp!, {r4, r5, r6, pc}
	.cfi_endproc
.LFE126:
	.size	put_qpel8_mc22_c, .-put_qpel8_mc22_c
	.align	2
	.type	put_qpel16_mc20_c, %function
put_qpel16_mc20_c:
.LFB128:
	.loc 5 695 0 is_stmt 1
	.cfi_startproc
	@ args = 0, pretend = 0, frame = 0
	@ frame_needed = 0, uses_anonymous_args = 0
.LVL242:
	str	lr, [sp, #-4]!
	.cfi_def_cfa_offset 4
	.cfi_offset 14, -4
	mov	r3, #16
	sub	sp, sp, #12
	.cfi_def_cfa_offset 16
	.loc 5 695 0
	str	r3, [sp]
	mov	r3, r2
	bl	put_mpeg4_qpel16_h_lowpass(PLT)
.LVL243:
	add	sp, sp, #12
	.cfi_def_cfa_offset 4
	@ sp needed
	ldr	pc, [sp], #4
	.cfi_endproc
.LFE128:
	.size	put_qpel16_mc20_c, .-put_qpel16_mc20_c
	.align	2
	.type	put_qpel16_mc02_c, %function
put_qpel16_mc02_c:
.LFB131:
	.loc 5 695 0
	.cfi_startproc
	@ args = 0, pretend = 0, frame = 416
	@ frame_needed = 0, uses_anonymous_args = 0
.LVL244:
	stmfd	sp!, {r4, r5, r6, r7, r8, r9, r10, fp, lr}
	.cfi_def_cfa_offset 36
	.cfi_offset 4, -36
	.cfi_offset 5, -32
	.cfi_offset 6, -28
	.cfi_offset 7, -24
	.cfi_offset 8, -20
	.cfi_offset 9, -16
	.cfi_offset 10, -12
	.cfi_offset 11, -8
	.cfi_offset 14, -4
.LBB311:
.LBB312:
	.loc 6 82 0
	ldrb	r10, [r1, #1]	@ zero_extendqisi2
	ldrb	r8, [r1]	@ zero_extendqisi2
	ldrb	r5, [r1, #12]	@ zero_extendqisi2
	orr	r8, r8, r10, asl #8
	ldrb	r10, [r1, #13]	@ zero_extendqisi2
	.loc 6 85 0
	add	lr, r1, r2
	.loc 6 82 0
	ldrb	r9, [lr, #1]	@ zero_extendqisi2
	ldrb	r3, [r1, r2]	@ zero_extendqisi2
	ldrb	r4, [r1, #4]	@ zero_extendqisi2
	ldrb	fp, [r1, #9]	@ zero_extendqisi2
	ldrb	r7, [r1, #5]	@ zero_extendqisi2
	ldrb	r6, [r1, #8]	@ zero_extendqisi2
	orr	r5, r5, r10, asl #8
	ldrb	r10, [r1, #2]	@ zero_extendqisi2
	orr	r3, r3, r9, asl #8
	orr	r7, r4, r7, asl #8
	ldrb	r9, [lr, #2]	@ zero_extendqisi2
	ldrb	r4, [lr, #4]	@ zero_extendqisi2
	orr	r6, r6, fp, asl #8
	orr	r8, r8, r10, asl #16
	ldrb	fp, [lr, #5]	@ zero_extendqisi2
	ldrb	r10, [r1, #10]	@ zero_extendqisi2
	orr	r4, r4, fp, asl #8
	orr	r3, r3, r9, asl #16
	ldrb	fp, [r1, #6]	@ zero_extendqisi2
	ldrb	r9, [lr, #3]	@ zero_extendqisi2
	orr	r6, r6, r10, asl #16
	ldrb	r10, [lr, #6]	@ zero_extendqisi2
	orr	r3, r3, r9, asl #24
	orr	r7, r7, fp, asl #16
	ldrb	r9, [r1, #11]	@ zero_extendqisi2
	ldrb	fp, [r1, #14]	@ zero_extendqisi2
	orr	r4, r4, r10, asl #16
	ldrb	r10, [r1, #7]	@ zero_extendqisi2
.LBE312:
.LBE311:
	.loc 5 695 0
	sub	sp, sp, #420
	.cfi_def_cfa_offset 456
.LVL245:
.LBB315:
.LBB313:
	.loc 6 82 0
	orr	r7, r7, r10, asl #24
	orr	r6, r6, r9, asl #24
	ldrb	r10, [r1, #15]	@ zero_extendqisi2
	ldrb	r9, [lr, #7]	@ zero_extendqisi2
	orr	r5, r5, fp, asl #16
	ldrb	fp, [r1, #3]	@ zero_extendqisi2
	str	r3, [sp]
	orr	r8, r8, fp, asl #24
	add	r3, sp, #16
	.loc 6 85 0
	add	fp, lr, r2
	.loc 6 82 0
	orr	r5, r5, r10, asl #24
	orr	r4, r4, r9, asl #24
	.loc 6 83 0
	ldrb	r10, [r1, #16]	@ zero_extendqisi2
	.loc 6 82 0
	ldr	r9, [sp]
	str	r9, [r3, #16]
	str	r8, [r3, #-8]
	str	r7, [r3, #-4]
	str	r6, [r3, #0]
	str	r5, [r3, #4]
	str	r4, [r3, #20]
	ldrb	r6, [r1, r2, asl #1]	@ zero_extendqisi2
	ldrb	r8, [lr, #13]	@ zero_extendqisi2
	.loc 6 83 0
	strb	r10, [sp, #24]
.LVL246:
	.loc 6 82 0
	ldrb	r1, [lr, #12]	@ zero_extendqisi2
.LVL247:
	ldrb	r10, [fp, #1]	@ zero_extendqisi2
	ldrb	r7, [fp, #5]	@ zero_extendqisi2
	ldrb	r5, [fp, #4]	@ zero_extendqisi2
	orr	r6, r6, r10, asl #8
	orr	r1, r1, r8, asl #8
	ldrb	r10, [fp, #8]	@ zero_extendqisi2
	ldrb	r8, [fp, #9]	@ zero_extendqisi2
	orr	r5, r5, r7, asl #8
	orr	r10, r10, r8, asl #8
	ldrb	r7, [fp, #12]	@ zero_extendqisi2
	ldrb	r8, [fp, #13]	@ zero_extendqisi2
	ldrb	r9, [lr, #8]	@ zero_extendqisi2
	ldrb	r4, [lr, #9]	@ zero_extendqisi2
	orr	r7, r7, r8, asl #8
	str	r7, [sp]
	orr	r4, r9, r4, asl #8
	ldrb	r7, [fp, #2]	@ zero_extendqisi2
	ldrb	r9, [lr, #10]	@ zero_extendqisi2
	ldrb	r8, [lr, #14]	@ zero_extendqisi2
	orr	r4, r4, r9, asl #16
	orr	r6, r6, r7, asl #16
	ldrb	r9, [lr, #11]	@ zero_extendqisi2
	ldrb	r7, [fp, #6]	@ zero_extendqisi2
	orr	r1, r1, r8, asl #16
	ldrb	r8, [fp, #10]	@ zero_extendqisi2
	orr	r5, r5, r7, asl #16
	orr	r4, r4, r9, asl #24
	ldrb	r7, [fp, #14]	@ zero_extendqisi2
	ldr	r9, [sp]
	orr	r10, r10, r8, asl #16
	ldrb	r8, [fp, #3]	@ zero_extendqisi2
	orr	r7, r9, r7, asl #16
	ldrb	r9, [lr, #15]	@ zero_extendqisi2
	orr	r6, r6, r8, asl #24
	ldrb	r8, [fp, #7]	@ zero_extendqisi2
	orr	r1, r1, r9, asl #24
	ldrb	r9, [fp, #11]	@ zero_extendqisi2
	orr	r8, r5, r8, asl #24
	ldrb	r5, [fp, #15]	@ zero_extendqisi2
	orr	r10, r10, r9, asl #24
	.loc 6 85 0
	add	r9, fp, r2
	.loc 6 82 0
	orr	r7, r7, r5, asl #24
	str	r6, [r3, #40]
	.loc 6 83 0
	ldrb	r5, [fp, #16]	@ zero_extendqisi2
	.loc 6 85 0
	add	r6, r9, r2
	.loc 6 82 0
	str	r4, [r3, #24]
	str	r1, [r3, #28]
	.loc 6 83 0
	ldrb	r4, [lr, #16]	@ zero_extendqisi2
	.loc 6 82 0
	str	r8, [r3, #44]
	str	r10, [r3, #48]
	str	r7, [r3, #52]
	ldrb	r1, [lr, r2, asl #1]	@ zero_extendqisi2
	ldrb	r8, [r9, #5]	@ zero_extendqisi2
	ldrb	lr, [fp, r2, asl #1]	@ zero_extendqisi2
.LVL248:
	.loc 6 83 0
	strb	r5, [sp, #72]
	.loc 6 82 0
	ldrb	r7, [r6, #1]	@ zero_extendqisi2
	ldrb	r5, [r9, #4]	@ zero_extendqisi2
	.loc 6 83 0
	strb	r4, [sp, #48]
.LVL249:
	.loc 6 82 0
	ldrb	r10, [r9, #9]	@ zero_extendqisi2
	ldrb	r4, [r9, #8]	@ zero_extendqisi2
	orr	r7, lr, r7, asl #8
	orr	r5, r5, r8, asl #8
	ldrb	lr, [r9, #12]	@ zero_extendqisi2
	ldrb	r8, [r9, #13]	@ zero_extendqisi2
	orr	r10, r4, r10, asl #8
	orr	r8, lr, r8, asl #8
	ldrb	r4, [r6, #4]	@ zero_extendqisi2
	ldrb	lr, [r6, #5]	@ zero_extendqisi2
	ldrb	fp, [r9, #1]	@ zero_extendqisi2
	orr	lr, r4, lr, asl #8
	str	lr, [sp]
	ldrb	r4, [r6, #2]	@ zero_extendqisi2
	ldrb	lr, [r9, #6]	@ zero_extendqisi2
	orr	r1, r1, fp, asl #8
	ldrb	fp, [r9, #2]	@ zero_extendqisi2
	orr	r7, r7, r4, asl #16
	orr	r1, r1, fp, asl #16
	ldrb	r4, [r9, #10]	@ zero_extendqisi2
	ldrb	fp, [r9, #3]	@ zero_extendqisi2
	orr	r5, r5, lr, asl #16
	ldrb	lr, [r9, #14]	@ zero_extendqisi2
	orr	r1, r1, fp, asl #24
	orr	lr, r8, lr, asl #16
	ldr	fp, [sp]
	ldrb	r8, [r6, #3]	@ zero_extendqisi2
	orr	r4, r10, r4, asl #16
	ldrb	r10, [r6, #6]	@ zero_extendqisi2
	orr	r7, r7, r8, asl #24
	orr	fp, fp, r10, asl #16
	ldrb	r8, [r9, #11]	@ zero_extendqisi2
	ldrb	r10, [r9, #7]	@ zero_extendqisi2
	orr	r4, r4, r8, asl #24
	orr	r5, r5, r10, asl #24
	ldrb	r8, [r6, #7]	@ zero_extendqisi2
	ldrb	r10, [r9, #15]	@ zero_extendqisi2
	orr	fp, fp, r8, asl #24
	orr	r10, lr, r10, asl #24
	.loc 6 85 0
	add	lr, r6, r2
	.loc 6 83 0
	ldrb	r8, [r9, #16]	@ zero_extendqisi2
	.loc 6 82 0
	str	r1, [r3, #64]
	str	r7, [r3, #88]
	str	r5, [r3, #68]
	str	r4, [r3, #72]
	ldrb	r7, [r9, r2, asl #1]	@ zero_extendqisi2
	str	fp, [r3, #92]
	ldrb	r9, [r6, #13]	@ zero_extendqisi2
.LVL250:
	ldrb	fp, [lr, #1]	@ zero_extendqisi2
	ldrb	r4, [r6, #12]	@ zero_extendqisi2
	str	r10, [r3, #76]
	ldrb	r5, [lr, #4]	@ zero_extendqisi2
	.loc 6 83 0
	strb	r8, [sp, #96]
.LVL251:
	.loc 6 82 0
	orr	r7, r7, fp, asl #8
	ldrb	r8, [lr, #5]	@ zero_extendqisi2
	ldrb	fp, [lr, #8]	@ zero_extendqisi2
	orr	r4, r4, r9, asl #8
	ldrb	r9, [lr, #9]	@ zero_extendqisi2
	orr	r5, r5, r8, asl #8
	orr	fp, fp, r9, asl #8
	ldrb	r8, [lr, #12]	@ zero_extendqisi2
	ldrb	r9, [lr, #13]	@ zero_extendqisi2
	ldrb	r10, [r6, #8]	@ zero_extendqisi2
	ldrb	r1, [r6, #9]	@ zero_extendqisi2
	orr	r8, r8, r9, asl #8
	str	r8, [sp]
	orr	r1, r10, r1, asl #8
	ldrb	r8, [lr, #2]	@ zero_extendqisi2
	ldrb	r10, [r6, #10]	@ zero_extendqisi2
	ldrb	r9, [r6, #14]	@ zero_extendqisi2
	orr	r1, r1, r10, asl #16
	orr	r7, r7, r8, asl #16
	ldrb	r10, [r6, #11]	@ zero_extendqisi2
	ldrb	r8, [lr, #6]	@ zero_extendqisi2
	orr	r4, r4, r9, asl #16
	ldrb	r9, [lr, #10]	@ zero_extendqisi2
	orr	r5, r5, r8, asl #16
	orr	r1, r1, r10, asl #24
	ldrb	r8, [lr, #14]	@ zero_extendqisi2
	ldr	r10, [sp]
	orr	fp, fp, r9, asl #16
	ldrb	r9, [lr, #3]	@ zero_extendqisi2
	orr	r8, r10, r8, asl #16
	ldrb	r10, [r6, #15]	@ zero_extendqisi2
	orr	r7, r7, r9, asl #24
	ldrb	r9, [lr, #7]	@ zero_extendqisi2
	orr	r4, r4, r10, asl #24
	ldrb	r10, [lr, #11]	@ zero_extendqisi2
	orr	r9, r5, r9, asl #24
	ldrb	r5, [lr, #15]	@ zero_extendqisi2
	orr	fp, fp, r10, asl #24
	.loc 6 85 0
	add	r10, lr, r2
	.loc 6 82 0
	orr	r8, r8, r5, asl #24
	str	r1, [r3, #96]
	.loc 6 83 0
	ldrb	r5, [lr, #16]	@ zero_extendqisi2
	ldrb	r1, [r6, #16]	@ zero_extendqisi2
	.loc 6 82 0
	str	r7, [r3, #112]
	.loc 6 85 0
	add	r7, r10, r2
	.loc 6 82 0
	str	r4, [r3, #100]
	str	r8, [r3, #124]
	ldrb	lr, [lr, r2, asl #1]	@ zero_extendqisi2
	ldrb	r8, [r10, #5]	@ zero_extendqisi2
	.loc 6 83 0
	strb	r5, [sp, #144]
	strb	r1, [sp, #120]
.LVL252:
	.loc 6 82 0
	ldrb	r5, [r10, #4]	@ zero_extendqisi2
	ldrb	r1, [r6, r2, asl #1]	@ zero_extendqisi2
	ldrb	r6, [r7, #1]	@ zero_extendqisi2
	ldrb	r4, [r10, #8]	@ zero_extendqisi2
	str	r9, [r3, #116]
	orr	r6, lr, r6, asl #8
	ldrb	r9, [r10, #9]	@ zero_extendqisi2
	ldrb	lr, [r10, #12]	@ zero_extendqisi2
	orr	r5, r5, r8, asl #8
	ldrb	r8, [r10, #13]	@ zero_extendqisi2
	orr	r9, r4, r9, asl #8
	orr	r8, lr, r8, asl #8
	ldrb	r4, [r7, #4]	@ zero_extendqisi2
	ldrb	lr, [r7, #5]	@ zero_extendqisi2
	str	fp, [r3, #120]
	ldrb	fp, [r10, #1]	@ zero_extendqisi2
	orr	lr, r4, lr, asl #8
	str	lr, [sp]
	ldrb	r4, [r7, #2]	@ zero_extendqisi2
	ldrb	lr, [r10, #6]	@ zero_extendqisi2
	orr	r1, r1, fp, asl #8
	ldrb	fp, [r10, #2]	@ zero_extendqisi2
	orr	r6, r6, r4, asl #16
	orr	r1, r1, fp, asl #16
	ldrb	r4, [r10, #10]	@ zero_extendqisi2
	ldrb	fp, [r10, #3]	@ zero_extendqisi2
	orr	r5, r5, lr, asl #16
	ldrb	lr, [r10, #14]	@ zero_extendqisi2
	orr	r4, r9, r4, asl #16
	orr	r1, r1, fp, asl #24
	ldrb	r9, [r7, #6]	@ zero_extendqisi2
	ldr	fp, [sp]
	orr	lr, r8, lr, asl #16
	ldrb	r8, [r7, #3]	@ zero_extendqisi2
	orr	fp, fp, r9, asl #16
	orr	r6, r6, r8, asl #24
	ldrb	r9, [r10, #7]	@ zero_extendqisi2
	ldrb	r8, [r10, #11]	@ zero_extendqisi2
	orr	r5, r5, r9, asl #24
	orr	r8, r4, r8, asl #24
	ldrb	r9, [r10, #15]	@ zero_extendqisi2
	ldrb	r4, [r7, #7]	@ zero_extendqisi2
	orr	lr, lr, r9, asl #24
	orr	fp, fp, r4, asl #24
	.loc 6 85 0
	add	r4, r7, r2
	.loc 6 83 0
	ldrb	r9, [r10, #16]	@ zero_extendqisi2
	.loc 6 82 0
	str	r1, [r3, #136]
	str	r6, [r3, #160]
	ldrb	r1, [r10, r2, asl #1]	@ zero_extendqisi2
	str	lr, [r3, #148]
	str	r5, [r3, #140]
	ldrb	lr, [r7, #8]	@ zero_extendqisi2
	str	r8, [r3, #144]
	ldrb	r6, [r7, #9]	@ zero_extendqisi2
	ldrb	r8, [r7, #13]	@ zero_extendqisi2
	ldrb	r10, [r4, #1]	@ zero_extendqisi2
.LVL253:
	ldrb	r5, [r7, #12]	@ zero_extendqisi2
	str	fp, [r3, #164]
	.loc 6 83 0
	strb	r9, [sp, #168]
.LVL254:
	.loc 6 82 0
	ldrb	fp, [r4, #5]	@ zero_extendqisi2
	ldrb	r9, [r4, #4]	@ zero_extendqisi2
	orr	r6, lr, r6, asl #8
	orr	r10, r1, r10, asl #8
	ldrb	lr, [r7, #10]	@ zero_extendqisi2
	ldrb	r1, [r4, #8]	@ zero_extendqisi2
	orr	r5, r5, r8, asl #8
	ldrb	r8, [r4, #9]	@ zero_extendqisi2
	orr	lr, r6, lr, asl #16
	orr	r9, r9, fp, asl #8
	orr	r1, r1, r8, asl #8
	ldrb	fp, [r4, #12]	@ zero_extendqisi2
	ldrb	r8, [r4, #13]	@ zero_extendqisi2
	str	lr, [sp]
	ldrb	lr, [r4, #2]	@ zero_extendqisi2
	orr	r8, fp, r8, asl #8
	str	r8, [sp, #4]
	orr	lr, r10, lr, asl #16
	ldrb	r8, [r7, #14]	@ zero_extendqisi2
	ldrb	r10, [r4, #6]	@ zero_extendqisi2
	ldrb	r6, [r7, #11]	@ zero_extendqisi2
	orr	r5, r5, r8, asl #16
	orr	r9, r9, r10, asl #16
	ldrb	r8, [r4, #10]	@ zero_extendqisi2
	ldr	r10, [sp]
	orr	r1, r1, r8, asl #16
	orr	r10, r10, r6, asl #24
	ldrb	r8, [r4, #14]	@ zero_extendqisi2
	ldr	r6, [sp, #4]
	ldrb	fp, [r4, #3]	@ zero_extendqisi2
	orr	r6, r6, r8, asl #16
	ldrb	r8, [r7, #15]	@ zero_extendqisi2
	orr	lr, lr, fp, asl #24
	ldrb	fp, [r4, #7]	@ zero_extendqisi2
	orr	r5, r5, r8, asl #24
	ldrb	r8, [r4, #11]	@ zero_extendqisi2
	orr	r9, r9, fp, asl #24
	ldrb	fp, [r4, #15]	@ zero_extendqisi2
	orr	r8, r1, r8, asl #24
	.loc 6 85 0
	add	r1, r4, r2
	.loc 6 82 0
	orr	r6, r6, fp, asl #24
	.loc 6 83 0
	ldrb	fp, [r4, #16]	@ zero_extendqisi2
	.loc 6 82 0
	str	lr, [r3, #184]
	.loc 6 85 0
	add	lr, r1, r2
	.loc 6 82 0
	str	r5, [r3, #172]
	str	r6, [r3, #196]
	ldrb	r5, [r4, r2, asl #1]	@ zero_extendqisi2
	str	r10, [r3, #168]
	str	r9, [r3, #188]
	.loc 6 83 0
	ldrb	r10, [r7, #16]	@ zero_extendqisi2
	.loc 6 82 0
	ldrb	r9, [r1, #5]	@ zero_extendqisi2
	str	r8, [r3, #192]
	.loc 6 83 0
	strb	fp, [sp, #216]
	.loc 6 82 0
	ldrb	r8, [lr, #1]	@ zero_extendqisi2
	ldrb	fp, [r7, r2, asl #1]	@ zero_extendqisi2
	ldrb	r7, [r1, #4]	@ zero_extendqisi2
.LVL255:
	ldrb	r6, [r1, #8]	@ zero_extendqisi2
	.loc 6 83 0
	strb	r10, [sp, #192]
.LVL256:
	.loc 6 82 0
	orr	r8, r5, r8, asl #8
	ldrb	r10, [r1, #9]	@ zero_extendqisi2
	ldrb	r5, [r1, #12]	@ zero_extendqisi2
	orr	r7, r7, r9, asl #8
	ldrb	r9, [r1, #13]	@ zero_extendqisi2
	orr	r10, r6, r10, asl #8
	orr	r9, r5, r9, asl #8
	ldrb	r6, [lr, #4]	@ zero_extendqisi2
	ldrb	r5, [lr, #5]	@ zero_extendqisi2
	ldrb	r4, [r1, #1]	@ zero_extendqisi2
	orr	r5, r6, r5, asl #8
	str	r5, [sp]
	ldrb	r6, [lr, #2]	@ zero_extendqisi2
	ldrb	r5, [r1, #6]	@ zero_extendqisi2
	orr	r4, fp, r4, asl #8
	ldrb	fp, [r1, #2]	@ zero_extendqisi2
	orr	r8, r8, r6, asl #16
	orr	r4, r4, fp, asl #16
	ldrb	r6, [r1, #10]	@ zero_extendqisi2
	ldrb	fp, [r1, #3]	@ zero_extendqisi2
	orr	r7, r7, r5, asl #16
	ldrb	r5, [r1, #14]	@ zero_extendqisi2
	orr	r4, r4, fp, asl #24
	orr	r5, r9, r5, asl #16
	ldr	fp, [sp]
	ldrb	r9, [lr, #3]	@ zero_extendqisi2
	orr	r6, r10, r6, asl #16
	ldrb	r10, [lr, #6]	@ zero_extendqisi2
	orr	r8, r8, r9, asl #24
	orr	fp, fp, r10, asl #16
	ldrb	r10, [r1, #7]	@ zero_extendqisi2
	ldrb	r9, [r1, #11]	@ zero_extendqisi2
	orr	r7, r7, r10, asl #24
	orr	r6, r6, r9, asl #24
	ldrb	r10, [r1, #15]	@ zero_extendqisi2
	ldrb	r9, [lr, #7]	@ zero_extendqisi2
	orr	r10, r5, r10, asl #24
	orr	fp, fp, r9, asl #24
	.loc 6 85 0
	add	r5, lr, r2
	.loc 6 83 0
	ldrb	r9, [r1, #16]	@ zero_extendqisi2
	.loc 6 82 0
	str	r10, [r3, #220]
	str	r6, [r3, #216]
	ldrb	r10, [lr, #13]	@ zero_extendqisi2
	str	fp, [r3, #236]
	ldrb	r1, [r1, r2, asl #1]	@ zero_extendqisi2
.LVL257:
	ldrb	fp, [r5, #1]	@ zero_extendqisi2
	ldrb	r6, [lr, #12]	@ zero_extendqisi2
	str	r8, [r3, #232]
	.loc 6 83 0
	strb	r9, [sp, #240]
.LVL258:
	.loc 6 82 0
	ldrb	r8, [r5, #4]	@ zero_extendqisi2
	ldrb	r9, [r5, #5]	@ zero_extendqisi2
	orr	r1, r1, fp, asl #8
	orr	r6, r6, r10, asl #8
	ldrb	fp, [r5, #8]	@ zero_extendqisi2
	ldrb	r10, [r5, #9]	@ zero_extendqisi2
	str	r4, [r3, #208]
	str	r7, [r3, #212]
	ldrb	r4, [lr, #9]	@ zero_extendqisi2
	ldrb	r7, [lr, #8]	@ zero_extendqisi2
	orr	fp, fp, r10, asl #8
	orr	r8, r8, r9, asl #8
	ldrb	r10, [r5, #13]	@ zero_extendqisi2
	ldrb	r9, [r5, #12]	@ zero_extendqisi2
	orr	r4, r7, r4, asl #8
	ldrb	r7, [lr, #10]	@ zero_extendqisi2
	orr	r10, r9, r10, asl #8
	ldrb	r9, [r5, #2]	@ zero_extendqisi2
	orr	r4, r4, r7, asl #16
	str	r4, [sp]
	orr	r1, r1, r9, asl #16
	ldrb	r4, [lr, #14]	@ zero_extendqisi2
	ldrb	r9, [r5, #6]	@ zero_extendqisi2
	ldrb	r7, [lr, #11]	@ zero_extendqisi2
	orr	r6, r6, r4, asl #16
	orr	r8, r8, r9, asl #16
	ldrb	r4, [r5, #10]	@ zero_extendqisi2
	ldr	r9, [sp]
	str	r10, [sp, #4]
	orr	r4, fp, r4, asl #16
	ldrb	r10, [r5, #14]	@ zero_extendqisi2
	orr	fp, r9, r7, asl #24
	ldrb	r9, [r5, #3]	@ zero_extendqisi2
	ldr	r7, [sp, #4]
	orr	r1, r1, r9, asl #24
	orr	r10, r7, r10, asl #16
	ldrb	r9, [r5, #7]	@ zero_extendqisi2
	ldrb	r7, [lr, #15]	@ zero_extendqisi2
	orr	r8, r8, r9, asl #24
	orr	r6, r6, r7, asl #24
	ldrb	r9, [r5, #15]	@ zero_extendqisi2
	ldrb	r7, [r5, #11]	@ zero_extendqisi2
	orr	r9, r10, r9, asl #24
	orr	r7, r4, r7, asl #24
	.loc 6 83 0
	ldrb	r10, [r5, #16]	@ zero_extendqisi2
	.loc 6 85 0
	add	r4, r5, r2
	.loc 6 82 0
	str	r7, [sp, #280]
	.loc 6 83 0
	strb	r10, [sp, #288]
	.loc 6 82 0
	ldrb	r7, [lr, r2, asl #1]	@ zero_extendqisi2
	ldrb	r10, [r4, #1]	@ zero_extendqisi2
	str	r6, [r3, #244]
	str	r1, [sp, #272]
	.loc 6 83 0
	ldrb	r6, [lr, #16]	@ zero_extendqisi2
	.loc 6 85 0
	add	r1, r4, r2
	.loc 6 82 0
	str	fp, [r3, #240]
	str	r8, [sp, #276]
	ldrb	r3, [r4, #4]	@ zero_extendqisi2
	ldrb	r8, [r5, r2, asl #1]	@ zero_extendqisi2
	str	r9, [sp, #284]
	.loc 6 83 0
	strb	r6, [sp, #264]
.LVL259:
	.loc 6 82 0
	ldrb	r9, [r4, #13]	@ zero_extendqisi2
	ldrb	r6, [r4, #5]	@ zero_extendqisi2
	ldrb	lr, [r4, #12]	@ zero_extendqisi2
	ldrb	r5, [r1, #4]	@ zero_extendqisi2
	orr	r7, r7, r10, asl #8
	ldrb	r10, [r1, #5]	@ zero_extendqisi2
	ldrb	fp, [r1, #1]	@ zero_extendqisi2
	orr	r6, r3, r6, asl #8
	orr	lr, lr, r9, asl #8
	ldrb	r3, [r4, #8]	@ zero_extendqisi2
	ldrb	r9, [r4, #9]	@ zero_extendqisi2
	orr	r5, r5, r10, asl #8
	ldrb	r10, [r4, #2]	@ zero_extendqisi2
	orr	r8, r8, fp, asl #8
	orr	r3, r3, r9, asl #8
	ldrb	fp, [r1, #2]	@ zero_extendqisi2
	ldrb	r9, [r4, #6]	@ zero_extendqisi2
	orr	r7, r7, r10, asl #16
	ldrb	r10, [r4, #14]	@ zero_extendqisi2
	orr	r8, r8, fp, asl #16
	orr	r6, r6, r9, asl #16
	ldrb	fp, [r1, #3]	@ zero_extendqisi2
	orr	lr, lr, r10, asl #16
	ldrb	r9, [r1, #6]	@ zero_extendqisi2
	ldrb	r10, [r4, #10]	@ zero_extendqisi2
	orr	r5, r5, r9, asl #16
	orr	r3, r3, r10, asl #16
	ldrb	r9, [r4, #3]	@ zero_extendqisi2
	ldrb	r10, [r4, #7]	@ zero_extendqisi2
	orr	r7, r7, r9, asl #24
	orr	r6, r6, r10, asl #24
	ldrb	r9, [r1, #7]	@ zero_extendqisi2
	ldrb	r10, [r4, #11]	@ zero_extendqisi2
	orr	r8, r8, fp, asl #24
	orr	r9, r5, r9, asl #24
	ldrb	fp, [r4, #15]	@ zero_extendqisi2
	orr	r10, r3, r10, asl #24
	.loc 6 85 0
	add	r3, r1, r2
	.loc 6 82 0
	str	r7, [sp, #296]
	str	r9, [sp, #324]
	ldrb	r7, [r4, r2, asl #1]	@ zero_extendqisi2
	ldrb	r9, [r3, #1]	@ zero_extendqisi2
	orr	lr, lr, fp, asl #24
	str	r6, [sp, #300]
	.loc 6 83 0
	ldrb	fp, [r4, #16]	@ zero_extendqisi2
	.loc 6 82 0
	str	lr, [sp, #308]
	str	r10, [sp, #304]
	ldrb	lr, [r1, #12]	@ zero_extendqisi2
	ldrb	r10, [r3, #5]	@ zero_extendqisi2
	ldrb	r6, [r1, #13]	@ zero_extendqisi2
	ldrb	r5, [r3, #4]	@ zero_extendqisi2
	ldrb	r4, [r3, #12]	@ zero_extendqisi2
.LVL260:
	orr	r7, r7, r9, asl #8
	ldrb	r9, [r3, #13]	@ zero_extendqisi2
	str	r8, [sp, #320]
	.loc 6 83 0
	strb	fp, [sp, #312]
.LVL261:
	.loc 6 82 0
	ldrb	r8, [r1, #8]	@ zero_extendqisi2
	ldrb	fp, [r1, #9]	@ zero_extendqisi2
	orr	r6, lr, r6, asl #8
	orr	r5, r5, r10, asl #8
	ldrb	lr, [r3, #8]	@ zero_extendqisi2
	ldrb	r10, [r3, #9]	@ zero_extendqisi2
	orr	r4, r4, r9, asl #8
	ldrb	r9, [r3, #2]	@ zero_extendqisi2
	orr	r8, r8, fp, asl #8
	orr	lr, lr, r10, asl #8
	ldrb	fp, [r1, #10]	@ zero_extendqisi2
	ldrb	r10, [r1, #14]	@ zero_extendqisi2
	orr	r7, r7, r9, asl #16
	ldrb	r9, [r3, #6]	@ zero_extendqisi2
	orr	r8, r8, fp, asl #16
	orr	r6, r6, r10, asl #16
	ldrb	fp, [r1, #11]	@ zero_extendqisi2
	ldrb	r10, [r3, #14]	@ zero_extendqisi2
	orr	r5, r5, r9, asl #16
	ldrb	r9, [r3, #10]	@ zero_extendqisi2
	orr	r8, r8, fp, asl #24
	orr	lr, lr, r9, asl #16
	ldrb	r9, [r1, #15]	@ zero_extendqisi2
	orr	r4, r4, r10, asl #16
	ldrb	r10, [r3, #3]	@ zero_extendqisi2
	str	r8, [sp]
	orr	r6, r6, r9, asl #24
	ldrb	r8, [r3, #7]	@ zero_extendqisi2
	ldrb	r9, [r3, #11]	@ zero_extendqisi2
	orr	r7, r7, r10, asl #24
	ldrb	r10, [r3, #15]	@ zero_extendqisi2
	orr	r5, r5, r8, asl #24
	orr	lr, lr, r9, asl #24
	.loc 6 85 0
	add	r8, r3, r2
	.loc 6 82 0
	ldr	r9, [sp]
	orr	r4, r4, r10, asl #24
	str	r9, [sp, #328]
	str	r7, [sp, #344]
	.loc 6 83 0
	ldrb	r9, [r3, #16]	@ zero_extendqisi2
	.loc 6 85 0
	add	r7, r8, r2
	.loc 6 82 0
	ldrb	fp, [r8, #1]	@ zero_extendqisi2
	ldrb	r10, [r7, #5]	@ zero_extendqisi2
	str	r4, [sp, #356]
	str	lr, [sp, #352]
	ldrb	r4, [r1, r2, asl #1]	@ zero_extendqisi2
	.loc 6 83 0
	strb	r9, [sp, #360]
	.loc 6 82 0
	ldrb	lr, [r7, #4]	@ zero_extendqisi2
	ldrb	r9, [r8, #5]	@ zero_extendqisi2
	ldrb	ip, [r8, #4]	@ zero_extendqisi2
	str	r6, [sp, #332]
	str	r5, [sp, #348]
	.loc 6 83 0
	ldrb	r6, [r1, #16]	@ zero_extendqisi2
	.loc 6 82 0
	ldrb	r5, [r7, #1]	@ zero_extendqisi2
	ldrb	r3, [r3, r2, asl #1]	@ zero_extendqisi2
	.loc 6 83 0
	strb	r6, [sp, #336]
.LVL262:
	.loc 6 82 0
	ldrb	r1, [r8, #8]	@ zero_extendqisi2
	ldrb	r6, [r8, #9]	@ zero_extendqisi2
	orr	r4, r4, fp, asl #8
	orr	lr, lr, r10, asl #8
	ldrb	fp, [r8, #12]	@ zero_extendqisi2
	ldrb	r10, [r8, #13]	@ zero_extendqisi2
	orr	ip, ip, r9, asl #8
	ldrb	r9, [r8, #2]	@ zero_extendqisi2
	orr	r3, r3, r5, asl #8
	ldrb	r5, [r7, #2]	@ zero_extendqisi2
	orr	r10, fp, r10, asl #8
	orr	r1, r1, r6, asl #8
	orr	r9, r4, r9, asl #16
	ldrb	r6, [r7, #6]	@ zero_extendqisi2
	ldrb	fp, [r8, #6]	@ zero_extendqisi2
	ldrb	r4, [r8, #10]	@ zero_extendqisi2
	orr	r3, r3, r5, asl #16
	ldrb	r5, [r7, #3]	@ zero_extendqisi2
	orr	r1, r1, r4, asl #16
	ldrb	r4, [r7, #7]	@ zero_extendqisi2
	orr	r3, r3, r5, asl #24
	orr	lr, lr, r6, asl #16
	ldrb	r6, [r8, #14]	@ zero_extendqisi2
	str	r3, [sp]
	orr	lr, lr, r4, asl #24
	ldrb	r3, [r8, #11]	@ zero_extendqisi2
	ldrb	r4, [r8, #15]	@ zero_extendqisi2
	orr	r6, r10, r6, asl #16
	ldrb	r10, [r8, #7]	@ zero_extendqisi2
	orr	r1, r1, r3, asl #24
	orr	r6, r6, r4, asl #24
	.loc 6 83 0
	ldrb	r3, [r8, #16]	@ zero_extendqisi2
	.loc 6 82 0
	ldr	r4, [sp]
	orr	ip, ip, fp, asl #16
	orr	ip, ip, r10, asl #24
	str	r4, [sp, #392]
	str	r1, [sp, #376]
	ldrb	r4, [r7, #12]	@ zero_extendqisi2
	ldrb	r1, [r7, #8]	@ zero_extendqisi2
	str	r6, [sp, #380]
	.loc 6 83 0
	strb	r3, [sp, #384]
.LVL263:
	.loc 6 82 0
	ldrb	r6, [r7, #13]	@ zero_extendqisi2
	ldrb	r3, [r7, #9]	@ zero_extendqisi2
	str	lr, [sp, #396]
	str	ip, [sp, #372]
	ldrb	lr, [r7, #14]	@ zero_extendqisi2
	ldrb	ip, [r7, #10]	@ zero_extendqisi2
	ldrb	fp, [r8, #3]	@ zero_extendqisi2
	orr	r3, r1, r3, asl #8
	orr	r1, r4, r6, asl #8
	ldrb	r4, [r7, #11]	@ zero_extendqisi2
	ldrb	r6, [r7, #15]	@ zero_extendqisi2
	orr	r1, r1, lr, asl #16
	orr	r3, r3, ip, asl #16
	orr	ip, r3, r4, asl #24
	orr	lr, r1, r6, asl #24
	.loc 6 83 0
	ldrb	r4, [r7, #16]	@ zero_extendqisi2
	.loc 6 82 0
	orr	r9, r9, fp, asl #24
.LBE313:
.LBE315:
	.loc 5 695 0 discriminator 1
	add	r1, sp, #8
	mov	r3, #24
.LBB316:
.LBB314:
	.loc 6 82 0
	str	r9, [sp, #368]
	str	lr, [sp, #404]
	str	ip, [sp, #400]
	.loc 6 83 0
	strb	r4, [sp, #408]
.LVL264:
.LBE314:
.LBE316:
	.loc 5 695 0 discriminator 1
	bl	put_mpeg4_qpel16_v_lowpass(PLT)
.LVL265:
	.loc 5 695 0 is_stmt 0
	add	sp, sp, #420
	.cfi_def_cfa_offset 36
	@ sp needed
	ldmfd	sp!, {r4, r5, r6, r7, r8, r9, r10, fp, pc}
	.cfi_endproc
.LFE131:
	.size	put_qpel16_mc02_c, .-put_qpel16_mc02_c
	.align	2
	.type	put_qpel16_mc22_c, %function
put_qpel16_mc22_c:
.LFB147:
	.loc 5 695 0 is_stmt 1
	.cfi_startproc
	@ args = 0, pretend = 0, frame = 272
	@ frame_needed = 0, uses_anonymous_args = 0
.LVL266:
	stmfd	sp!, {r4, r5, r6, lr}
	.cfi_def_cfa_offset 16
	.cfi_offset 4, -16
	.cfi_offset 5, -12
	.cfi_offset 6, -8
	.cfi_offset 14, -4
	sub	sp, sp, #280
	.cfi_def_cfa_offset 296
	.loc 5 695 0
	mov	r5, r2
	add	r4, sp, #8
	mov	r2, #17
.LVL267:
	mov	r6, r0
	mov	r3, r5
	mov	r0, r4
.LVL268:
	str	r2, [sp]
	mov	r2, #16
	bl	put_mpeg4_qpel16_h_lowpass(PLT)
.LVL269:
	.loc 5 695 0 is_stmt 0 discriminator 1
	mov	r0, r6
	mov	r1, r4
	mov	r2, r5
	mov	r3, #16
	bl	put_mpeg4_qpel16_v_lowpass(PLT)
.LVL270:
	.loc 5 695 0
	add	sp, sp, #280
	.cfi_def_cfa_offset 16
	@ sp needed
	ldmfd	sp!, {r4, r5, r6, pc}
	.cfi_endproc
.LFE147:
	.size	put_qpel16_mc22_c, .-put_qpel16_mc22_c
	.align	2
	.type	put_no_rnd_mpeg4_qpel8_h_lowpass, %function
put_no_rnd_mpeg4_qpel8_h_lowpass:
.LFB148:
	.loc 5 696 0 is_stmt 1
	.cfi_startproc
	@ args = 4, pretend = 0, frame = 0
	@ frame_needed = 0, uses_anonymous_args = 0
.LVL271:
	stmfd	sp!, {r4, r5, r6, r7, r8, r9, r10, fp, lr}
	.cfi_def_cfa_offset 36
	.cfi_offset 4, -36
	.cfi_offset 5, -32
	.cfi_offset 6, -28
	.cfi_offset 7, -24
	.cfi_offset 8, -20
	.cfi_offset 9, -16
	.cfi_offset 10, -12
	.cfi_offset 11, -8
	.cfi_offset 14, -4
	.loc 5 696 0
	ldr	r7, [sp, #36]
	.loc 5 696 0 is_stmt 0 discriminator 1
	cmp	r7, #0
	ldmlefd	sp!, {r4, r5, r6, r7, r8, r9, r10, fp, pc}
	ldr	r6, .L108
	add	r8, r1, #1
.LPIC17:
	ldr	r6, [pc, r6]		@ tls_load_dot_plus_eight
	mov	r9, #0
	.loc 5 696 0 discriminator 3
	add	r6, r6, #1024
.LVL272:
.L104:
	ldrb	fp, [r1, #2]	@ zero_extendqisi2
	ldrb	ip, [r8, #-1]	@ zero_extendqisi2
	ldrb	r10, [r1, #1]	@ zero_extendqisi2
	ldrb	lr, [r1, #3]	@ zero_extendqisi2
	add	r4, ip, fp
	sub	r4, r4, r4, asl #2
	add	ip, ip, r10
	mov	r5, r4, asl #1
	add	r10, r10, lr
	add	r4, ip, ip, asl #2
	ldrb	ip, [r1, #4]	@ zero_extendqisi2
	add	r4, r5, r4, asl #2
	add	r10, r10, r10, asl #1
	add	lr, r4, r10
	add	ip, fp, ip
	rsb	ip, ip, lr
	add	ip, ip, #15
	ldrb	ip, [r6, ip, asr #5]	@ zero_extendqisi2
	strb	ip, [r0]
	ldrb	r5, [r8, #-1]	@ zero_extendqisi2
	ldrb	fp, [r1, #3]	@ zero_extendqisi2
	ldrb	r10, [r1, #1]	@ zero_extendqisi2
	ldrb	r4, [r1, #2]	@ zero_extendqisi2
	ldrb	lr, [r1, #4]	@ zero_extendqisi2
	add	fp, r5, fp
	sub	fp, fp, fp, asl #2
	add	r4, r10, r4
	mov	ip, fp, asl #1
	add	r5, r5, lr
	ldrb	fp, [r1, #5]	@ zero_extendqisi2
	add	r4, r4, r4, asl #2
	add	r4, ip, r4, asl #2
	add	r5, r5, r5, asl #1
	add	lr, r4, r5
	add	ip, r10, fp
	rsb	ip, ip, lr
	add	ip, ip, #15
	ldrb	ip, [r6, ip, asr #5]	@ zero_extendqisi2
	strb	ip, [r0, #1]
	ldrb	r4, [r1, #1]	@ zero_extendqisi2
	ldrb	r5, [r1, #4]	@ zero_extendqisi2
	ldrb	ip, [r1, #2]	@ zero_extendqisi2
	ldrb	lr, [r1, #3]	@ zero_extendqisi2
	ldrb	fp, [r8, #-1]	@ zero_extendqisi2
	ldrb	r10, [r1, #5]	@ zero_extendqisi2
	add	r5, r4, r5
	add	lr, ip, lr
	sub	r5, r5, r5, asl #2
	ldrb	ip, [r1, #6]	@ zero_extendqisi2
	mov	r5, r5, asl #1
	add	lr, lr, lr, asl #2
	add	r10, fp, r10
	add	r4, r5, lr, asl #2
	add	r10, r10, r10, asl #1
	add	lr, r4, r10
	add	ip, fp, ip
	rsb	ip, ip, lr
	add	ip, ip, #15
	ldrb	ip, [r6, ip, asr #5]	@ zero_extendqisi2
	strb	ip, [r0, #2]
	ldrb	lr, [r1, #2]	@ zero_extendqisi2
	ldrb	r10, [r1, #5]	@ zero_extendqisi2
	ldrb	ip, [r1, #3]	@ zero_extendqisi2
	ldrb	r4, [r1, #4]	@ zero_extendqisi2
	ldrb	fp, [r1, #6]	@ zero_extendqisi2
	ldrb	r5, [r1, #1]	@ zero_extendqisi2
	add	r10, lr, r10
	sub	r10, r10, r10, asl #2
	add	r4, ip, r4
	add	r5, r5, fp
	mov	ip, r10, asl #1
	ldrb	fp, [r1, #7]	@ zero_extendqisi2
	ldrb	r10, [r8, #-1]	@ zero_extendqisi2
	add	r4, r4, r4, asl #2
	add	r4, ip, r4, asl #2
	add	r5, r5, r5, asl #1
	add	lr, r4, r5
	add	ip, r10, fp
	rsb	ip, ip, lr
	add	ip, ip, #15
	ldrb	ip, [r6, ip, asr #5]	@ zero_extendqisi2
	strb	ip, [r0, #3]
	ldrb	lr, [r1, #3]	@ zero_extendqisi2
	ldrb	r10, [r1, #6]	@ zero_extendqisi2
	ldrb	ip, [r1, #4]	@ zero_extendqisi2
	ldrb	r4, [r1, #5]	@ zero_extendqisi2
	ldrb	fp, [r1, #7]	@ zero_extendqisi2
	ldrb	r5, [r1, #2]	@ zero_extendqisi2
	add	r10, lr, r10
	sub	r10, r10, r10, asl #2
	add	r4, ip, r4
	add	r5, r5, fp
	mov	ip, r10, asl #1
	ldrb	fp, [r1, #8]	@ zero_extendqisi2
	ldrb	r10, [r1, #1]	@ zero_extendqisi2
	add	r4, r4, r4, asl #2
	add	r4, ip, r4, asl #2
	add	r5, r5, r5, asl #1
	add	lr, r4, r5
	add	ip, r10, fp
	rsb	ip, ip, lr
	add	ip, ip, #15
	ldrb	ip, [r6, ip, asr #5]	@ zero_extendqisi2
	strb	ip, [r0, #4]
	ldrb	r4, [r1, #4]	@ zero_extendqisi2
	ldrb	r5, [r1, #7]	@ zero_extendqisi2
	ldrb	ip, [r1, #5]	@ zero_extendqisi2
	ldrb	lr, [r1, #6]	@ zero_extendqisi2
	ldrb	fp, [r1, #8]	@ zero_extendqisi2
	ldrb	r10, [r1, #3]	@ zero_extendqisi2
	add	r5, r4, r5
	add	lr, ip, lr
	sub	r5, r5, r5, asl #2
	ldrb	ip, [r1, #2]	@ zero_extendqisi2
	mov	r5, r5, asl #1
	add	lr, lr, lr, asl #2
	add	r10, r10, fp
	add	r4, r5, lr, asl #2
	add	r10, r10, r10, asl #1
	add	lr, r4, r10
	add	ip, fp, ip
	rsb	ip, ip, lr
	add	ip, ip, #15
	ldrb	ip, [r6, ip, asr #5]	@ zero_extendqisi2
	strb	ip, [r0, #5]
	ldrb	r5, [r1, #8]	@ zero_extendqisi2
	ldrb	fp, [r1, #5]	@ zero_extendqisi2
	ldrb	r10, [r1, #7]	@ zero_extendqisi2
	ldrb	r4, [r1, #6]	@ zero_extendqisi2
	ldrb	lr, [r1, #4]	@ zero_extendqisi2
	add	fp, fp, r5
	sub	fp, fp, fp, asl #2
	add	r4, r4, r10
	mov	ip, fp, asl #1
	add	r5, r5, lr
	ldrb	fp, [r1, #3]	@ zero_extendqisi2
	add	r4, r4, r4, asl #2
	add	r4, ip, r4, asl #2
	add	r5, r5, r5, asl #1
	add	lr, r4, r5
	add	ip, r10, fp
	rsb	ip, ip, lr
	add	ip, ip, #15
	ldrb	ip, [r6, ip, asr #5]	@ zero_extendqisi2
	strb	ip, [r0, #6]
	ldrb	ip, [r1, #8]	@ zero_extendqisi2
	ldrb	fp, [r1, #6]	@ zero_extendqisi2
	ldrb	r10, [r1, #7]	@ zero_extendqisi2
	ldrb	lr, [r1, #5]	@ zero_extendqisi2
	add	r4, ip, fp
	sub	r4, r4, r4, asl #2
	add	ip, r10, ip
	mov	r5, r4, asl #1
	add	r10, r10, lr
	add	r4, ip, ip, asl #2
	ldrb	ip, [r1, #4]	@ zero_extendqisi2
	add	r4, r5, r4, asl #2
	add	r10, r10, r10, asl #1
	add	lr, r4, r10
	add	ip, fp, ip
	rsb	ip, ip, lr
	add	r9, r9, #1
.LVL273:
	add	ip, ip, #15
	ldrb	ip, [r6, ip, asr #5]	@ zero_extendqisi2
	.loc 5 696 0 discriminator 1
	cmp	r9, r7
	.loc 5 696 0 discriminator 3
	strb	ip, [r0, #7]
	add	r8, r8, r3
	add	r1, r1, r3
.LVL274:
	add	r0, r0, r2
.LVL275:
	.loc 5 696 0 discriminator 1
	bne	.L104
	ldmfd	sp!, {r4, r5, r6, r7, r8, r9, r10, fp, pc}
.L109:
	.align	2
.L108:
	.word	ff_crop_tab(GOT_PREL)+(.-(.LPIC17+8))
	.cfi_endproc
.LFE148:
	.size	put_no_rnd_mpeg4_qpel8_h_lowpass, .-put_no_rnd_mpeg4_qpel8_h_lowpass
	.align	2
	.type	put_no_rnd_mpeg4_qpel8_v_lowpass, %function
put_no_rnd_mpeg4_qpel8_v_lowpass:
.LFB149:
	.loc 5 696 0 is_stmt 1
	.cfi_startproc
	@ args = 0, pretend = 0, frame = 80
	@ frame_needed = 0, uses_anonymous_args = 0
.LVL276:
	stmfd	sp!, {r4, r5, r6, r7, r8, r9, r10, fp, lr}
	.cfi_def_cfa_offset 36
	.cfi_offset 4, -36
	.cfi_offset 5, -32
	.cfi_offset 6, -28
	.cfi_offset 7, -24
	.cfi_offset 8, -20
	.cfi_offset 9, -16
	.cfi_offset 10, -12
	.cfi_offset 11, -8
	.cfi_offset 14, -4
	add	ip, r1, r3
	sub	sp, sp, #84
	.cfi_def_cfa_offset 120
	str	ip, [sp, #16]
	add	ip, ip, r3
	mov	lr, ip
	.loc 5 696 0
	str	r0, [sp, #8]
.LVL277:
	str	ip, [sp, #20]
	mov	ip, r0
	add	r0, r0, r2
.LVL278:
	mov	r4, r0
	str	r0, [sp, #60]
	add	r0, lr, r3
	mov	lr, r0
	str	r0, [sp, #24]
	add	r0, r4, r2
	mov	r4, r0
	str	r0, [sp, #56]
	add	r0, lr, r3
	mov	lr, r0
	str	r0, [sp, #28]
	add	r0, r4, r2
	add	lr, lr, r3
	mov	r4, r0
	mov	r5, lr
	str	lr, [sp, #32]
	add	lr, r4, r2
	mov	r4, lr
	str	lr, [sp, #48]
	add	lr, r5, r3
	mov	r5, lr
	str	r0, [sp, #52]
	str	lr, [sp, #72]
	ldr	r0, .L114
	add	lr, r4, r2
	mov	r4, lr
	str	lr, [sp, #44]
	add	lr, r5, r3
	mov	r5, lr
.LPIC19:
	ldr	r0, [pc, r0]		@ tls_load_dot_plus_eight
	str	lr, [sp, #68]
	add	lr, r4, r2
	add	r3, r5, r3
.LVL279:
	mov	r4, lr
	str	r3, [sp, #64]
	add	r3, r4, r2
.LBB317:
	.loc 5 696 0 is_stmt 0 discriminator 3
	add	r2, r0, #1024
.LVL280:
	sub	r1, r1, #1
.LVL281:
	str	r3, [sp, #36]
	mov	r10, r2
	add	r3, ip, #8
	str	lr, [sp, #40]
	str	r1, [sp, #12]
	str	r3, [sp, #76]
.LVL282:
.L111:
	ldr	r3, [sp, #12]
	ldr	r7, [sp, #72]
	ldrb	r1, [r3, #1]!	@ zero_extendqisi2
.LVL283:
	str	r3, [sp, #12]
.LVL284:
	ldr	r3, [sp, #20]
.LVL285:
	ldrb	r8, [r3], #1	@ zero_extendqisi2
	str	r3, [sp, #20]
	ldr	r3, [sp, #16]
	add	r5, r1, r8
	ldrb	r9, [r3], #1	@ zero_extendqisi2
	str	r3, [sp, #16]
.LVL286:
	ldr	r3, [sp, #24]
	add	r4, r1, r9
	ldrb	fp, [r3], #1	@ zero_extendqisi2
	str	r3, [sp, #24]
.LVL287:
	ldr	r3, [sp, #28]
	sub	r5, r5, r5, asl #2
	ldrb	lr, [r3], #1	@ zero_extendqisi2
	str	r3, [sp, #28]
.LVL288:
	ldr	r3, [sp, #32]
	mov	r5, r5, asl #1
	add	r2, r9, fp
	add	r4, r4, r4, asl #2
	ldrb	r0, [r3], #1	@ zero_extendqisi2
	add	r4, r5, r4, asl #2
	add	r2, r2, r2, asl #1
	str	r3, [sp, #32]
.LVL289:
	add	ip, r1, fp
	ldrb	r3, [r7], #1	@ zero_extendqisi2
	add	r2, r4, r2
	add	r4, r8, lr
	str	r3, [sp, #4]
	rsb	r2, r4, r2
	add	r3, r9, r8
	ldr	r4, [sp, #64]
	sub	ip, ip, ip, asl #2
	mov	ip, ip, asl #1
	add	r3, r3, r3, asl #2
	add	r3, ip, r3, asl #2
	ldrb	ip, [r4], #1	@ zero_extendqisi2
	ldr	r5, [sp, #68]
	str	r4, [sp, #64]
	add	r4, r1, lr
	add	r6, r9, lr
	add	r4, r4, r4, asl #1
	str	r7, [sp, #72]
.LVL290:
	sub	r6, r6, r6, asl #2
	ldrb	r7, [r5], #1	@ zero_extendqisi2
	add	r3, r3, r4
	add	r4, r8, fp
	str	r5, [sp, #68]
.LVL291:
	add	r4, r4, r4, asl #2
	mov	r5, r6, asl #1
	add	r6, r5, r4, asl #2
	add	r4, r1, r0
	add	r5, r8, r0
	str	r7, [sp]
.LVL292:
	add	r2, r2, #15
	ldr	r7, [sp, #8]
	add	r4, r4, r4, asl #1
	ldrb	r2, [r10, r2, asr #5]	@ zero_extendqisi2
	add	r4, r6, r4
	sub	r5, r5, r5, asl #2
	add	r6, fp, lr
	strb	r2, [r7], #1
	add	r6, r6, r6, asl #2
	add	r2, r9, r0
	mov	r5, r5, asl #1
	add	r5, r5, r6, asl #2
	rsb	r3, r2, r3
	ldr	r6, [sp, #4]
	str	r7, [sp, #8]
.LVL293:
	ldr	r2, [sp, #4]
	add	r6, fp, r6
	add	r2, r9, r2
	add	r2, r2, r2, asl #1
	ldr	r7, [sp]
.LVL294:
	add	r5, r5, r2
	sub	r6, r6, r6, asl #2
	add	r2, lr, r0
	add	r2, r2, r2, asl #2
	mov	r6, r6, asl #1
	add	r6, r6, r2, asl #2
	add	r3, r3, #15
	add	r2, lr, r7
	ldr	r7, [sp, #60]
	ldrb	r3, [r10, r3, asr #5]	@ zero_extendqisi2
	strb	r3, [r7], #1
	str	r7, [sp, #60]
	ldr	r7, [sp, #4]
	sub	r2, r2, r2, asl #2
	add	r3, r1, r7
	rsb	r4, r3, r4
	ldr	r3, [sp]
	mov	r2, r2, asl #1
	add	r1, r1, r3
.LVL295:
	add	r3, r8, r3
	add	r3, r3, r3, asl #1
	add	r6, r6, r3
	add	r3, r0, r7
	rsb	r5, r1, r5
	add	r3, r3, r3, asl #2
	add	r1, fp, ip
	add	r2, r2, r3, asl #2
	add	r1, r1, r1, asl #1
	add	r2, r2, r1
	mov	r1, r7
	ldr	r7, [sp]
	add	r9, r9, ip
.LVL296:
	add	r3, r0, ip
	rsb	r6, r9, r6
	add	r0, r0, r7
.LVL297:
	add	r9, r1, r7
	add	r4, r4, #15
	ldr	r7, [sp, #56]
	ldrb	r4, [r10, r4, asr #5]	@ zero_extendqisi2
	sub	r3, r3, r3, asl #2
	strb	r4, [r7], #1
	add	r9, r9, r9, asl #2
	str	r7, [sp, #56]
	mov	r3, r3, asl #1
	ldr	r7, [sp]
	add	r5, r5, #15
	add	r3, r3, r9, asl #2
	mov	r9, r1
	add	r1, r1, ip
	ldrb	r4, [r10, r5, asr #5]	@ zero_extendqisi2
	sub	r1, r1, r1, asl #2
	add	r5, r7, ip
	mov	r1, r1, asl #1
	add	r5, r5, r5, asl #2
	add	r5, r1, r5, asl #2
	ldr	r1, [sp, #52]
	add	r8, r8, ip
.LVL298:
	strb	r4, [r1], #1
	add	r6, r6, #15
	str	r1, [sp, #52]
	ldr	r1, [sp, #48]
	ldrb	r4, [r10, r6, asr #5]	@ zero_extendqisi2
	add	ip, lr, ip
.LVL299:
	rsb	r2, r8, r2
	strb	r4, [r1], #1
	add	ip, ip, ip, asl #1
	str	r1, [sp, #48]
	add	r2, r2, #15
	ldr	r1, [sp, #44]
	ldrb	r2, [r10, r2, asr #5]	@ zero_extendqisi2
	add	r7, fp, r7
	add	r3, r3, ip
	strb	r2, [r1], #1
	rsb	r3, r7, r3
.LBE317:
	.loc 5 696 0 discriminator 1
	ldr	r2, [sp, #76]
	ldr	r7, [sp, #8]
.LBB318:
	.loc 5 696 0 discriminator 3
	add	r0, r0, r0, asl #1
	add	r0, r5, r0
	add	lr, lr, r9
.LVL300:
	add	r3, r3, #15
	rsb	r0, lr, r0
.LBE318:
	.loc 5 696 0 discriminator 1
	cmp	r7, r2
.LBB319:
	.loc 5 696 0 discriminator 3
	ldr	r2, [sp, #40]
	ldrb	r3, [r10, r3, asr #5]	@ zero_extendqisi2
	add	r0, r0, #15
	strb	r3, [r2], #1
	str	r1, [sp, #44]
	ldrb	r3, [r10, r0, asr #5]	@ zero_extendqisi2
	str	r2, [sp, #40]
	ldr	r2, [sp, #36]
	strb	r3, [r2], #1
	str	r2, [sp, #36]
.LVL301:
.LBE319:
	.loc 5 696 0 discriminator 1
	bne	.L111
	.loc 5 696 0
	add	sp, sp, #84
	.cfi_def_cfa_offset 36
	@ sp needed
	ldmfd	sp!, {r4, r5, r6, r7, r8, r9, r10, fp, pc}
.LVL302:
.L115:
	.align	2
.L114:
	.word	ff_crop_tab(GOT_PREL)+(.-(.LPIC19+8))
	.cfi_endproc
.LFE149:
	.size	put_no_rnd_mpeg4_qpel8_v_lowpass, .-put_no_rnd_mpeg4_qpel8_v_lowpass
	.align	2
	.type	put_no_rnd_mpeg4_qpel16_h_lowpass, %function
put_no_rnd_mpeg4_qpel16_h_lowpass:
.LFB150:
	.loc 5 696 0 is_stmt 1
	.cfi_startproc
	@ args = 4, pretend = 0, frame = 0
	@ frame_needed = 0, uses_anonymous_args = 0
.LVL303:
	stmfd	sp!, {r4, r5, r6, r7, r8, r9, r10, fp, lr}
	.cfi_def_cfa_offset 36
	.cfi_offset 4, -36
	.cfi_offset 5, -32
	.cfi_offset 6, -28
	.cfi_offset 7, -24
	.cfi_offset 8, -20
	.cfi_offset 9, -16
	.cfi_offset 10, -12
	.cfi_offset 11, -8
	.cfi_offset 14, -4
	.loc 5 696 0 discriminator 1
	ldr	ip, [sp, #36]
	cmp	ip, #0
	ldmlefd	sp!, {r4, r5, r6, r7, r8, r9, r10, fp, pc}
	ldr	r7, .L122
	add	fp, r1, r3
.LPIC21:
	ldr	r7, [pc, r7]		@ tls_load_dot_plus_eight
	mov	r8, fp
	.loc 5 696 0 is_stmt 0 discriminator 3
	add	r7, r7, #1024
	.loc 5 696 0 discriminator 1
	mov	r10, #0
	rsb	r9, r3, #0
.LVL304:
.L118:
	.loc 5 696 0 discriminator 3
	ldrb	lr, [r8, r9]	@ zero_extendqisi2
	ldrb	r6, [r1, #2]	@ zero_extendqisi2
	ldrb	r4, [r1, #1]	@ zero_extendqisi2
	ldrb	ip, [r1, #3]	@ zero_extendqisi2
	add	r5, lr, r6
	sub	r5, r5, r5, asl #2
	add	lr, lr, r4
	mov	r5, r5, asl #1
	add	ip, r4, ip
	add	lr, lr, lr, asl #2
	ldrb	r4, [r1, #4]	@ zero_extendqisi2
	add	lr, r5, lr, asl #2
	add	ip, ip, ip, asl #1
	add	lr, lr, ip
	add	r6, r6, r4
	rsb	r6, r6, lr
	add	r6, r6, #15
	ldrb	ip, [r7, r6, asr #5]	@ zero_extendqisi2
	strb	ip, [r0]
	ldrb	r5, [r8, r9]	@ zero_extendqisi2
	ldrb	r4, [r1, #3]	@ zero_extendqisi2
	ldrb	r6, [r1, #1]	@ zero_extendqisi2
	ldrb	lr, [r1, #2]	@ zero_extendqisi2
	ldrb	ip, [r1, #4]	@ zero_extendqisi2
	add	r4, r5, r4
	add	lr, r6, lr
	sub	r4, r4, r4, asl #2
	mov	r4, r4, asl #1
	add	ip, r5, ip
	add	lr, lr, lr, asl #2
	ldrb	r5, [r1, #5]	@ zero_extendqisi2
	add	lr, r4, lr, asl #2
	add	ip, ip, ip, asl #1
	add	lr, lr, ip
	add	r6, r6, r5
	rsb	r6, r6, lr
	add	r6, r6, #15
	ldrb	ip, [r7, r6, asr #5]	@ zero_extendqisi2
	strb	ip, [r0, #1]
	ldrb	ip, [r1, #4]	@ zero_extendqisi2
	ldrb	r4, [r1, #1]	@ zero_extendqisi2
	ldrb	r6, [r1, #2]	@ zero_extendqisi2
	ldrb	lr, [r1, #3]	@ zero_extendqisi2
	ldrb	r5, [r8, r9]	@ zero_extendqisi2
	add	r4, r4, ip
	ldrb	ip, [r1, #5]	@ zero_extendqisi2
	add	lr, r6, lr
	sub	r4, r4, r4, asl #2
	ldrb	r6, [r1, #6]	@ zero_extendqisi2
	mov	r4, r4, asl #1
	add	ip, r5, ip
	add	lr, lr, lr, asl #2
	add	lr, r4, lr, asl #2
	add	ip, ip, ip, asl #1
	add	lr, lr, ip
	add	r5, r5, r6
	rsb	r5, r5, lr
	add	r5, r5, #15
	ldrb	ip, [r7, r5, asr #5]	@ zero_extendqisi2
	strb	ip, [r0, #2]
	ldrb	ip, [r1, #5]	@ zero_extendqisi2
	ldrb	r4, [r1, #2]	@ zero_extendqisi2
	ldrb	r6, [r1, #3]	@ zero_extendqisi2
	ldrb	lr, [r1, #4]	@ zero_extendqisi2
	ldrb	r5, [r1, #1]	@ zero_extendqisi2
	add	r4, r4, ip
	ldrb	ip, [r1, #6]	@ zero_extendqisi2
	add	lr, r6, lr
	sub	r4, r4, r4, asl #2
	ldrb	r6, [r1, #7]	@ zero_extendqisi2
	mov	r4, r4, asl #1
	add	ip, r5, ip
	add	lr, lr, lr, asl #2
	ldrb	r5, [r8, r9]	@ zero_extendqisi2
	add	lr, r4, lr, asl #2
	add	ip, ip, ip, asl #1
	add	lr, lr, ip
	add	r5, r5, r6
	rsb	r5, r5, lr
	add	r5, r5, #15
	ldrb	ip, [r7, r5, asr #5]	@ zero_extendqisi2
	strb	ip, [r0, #3]
	ldrb	ip, [r1, #6]	@ zero_extendqisi2
	ldrb	r4, [r1, #3]	@ zero_extendqisi2
	ldrb	r6, [r1, #4]	@ zero_extendqisi2
	ldrb	lr, [r1, #5]	@ zero_extendqisi2
	ldrb	r5, [r1, #2]	@ zero_extendqisi2
	add	r4, r4, ip
	ldrb	ip, [r1, #7]	@ zero_extendqisi2
	add	lr, r6, lr
	sub	r4, r4, r4, asl #2
	ldrb	r6, [r1, #8]	@ zero_extendqisi2
	mov	r4, r4, asl #1
	add	ip, r5, ip
	add	lr, lr, lr, asl #2
	ldrb	r5, [r1, #1]	@ zero_extendqisi2
	add	lr, r4, lr, asl #2
	add	ip, ip, ip, asl #1
	add	lr, lr, ip
	add	r5, r5, r6
	rsb	r5, r5, lr
	add	r5, r5, #15
	ldrb	ip, [r7, r5, asr #5]	@ zero_extendqisi2
	strb	ip, [r0, #4]
	ldrb	ip, [r1, #7]	@ zero_extendqisi2
	ldrb	r4, [r1, #4]	@ zero_extendqisi2
	ldrb	r6, [r1, #5]	@ zero_extendqisi2
	ldrb	lr, [r1, #6]	@ zero_extendqisi2
	ldrb	r5, [r1, #3]	@ zero_extendqisi2
	add	r4, r4, ip
	ldrb	ip, [r1, #8]	@ zero_extendqisi2
	add	lr, r6, lr
	sub	r4, r4, r4, asl #2
	ldrb	r6, [r1, #9]	@ zero_extendqisi2
	mov	r4, r4, asl #1
	add	ip, r5, ip
	add	lr, lr, lr, asl #2
	ldrb	r5, [r1, #2]	@ zero_extendqisi2
	add	lr, r4, lr, asl #2
	add	ip, ip, ip, asl #1
	add	lr, lr, ip
	add	r5, r5, r6
	rsb	r5, r5, lr
	add	r5, r5, #15
	ldrb	ip, [r7, r5, asr #5]	@ zero_extendqisi2
	strb	ip, [r0, #5]
	ldrb	ip, [r1, #8]	@ zero_extendqisi2
	ldrb	r4, [r1, #5]	@ zero_extendqisi2
	ldrb	r6, [r1, #6]	@ zero_extendqisi2
	ldrb	lr, [r1, #7]	@ zero_extendqisi2
	ldrb	r5, [r1, #4]	@ zero_extendqisi2
	add	r4, r4, ip
	ldrb	ip, [r1, #9]	@ zero_extendqisi2
	add	lr, r6, lr
	sub	r4, r4, r4, asl #2
	ldrb	r6, [r1, #10]	@ zero_extendqisi2
	mov	r4, r4, asl #1
	add	ip, r5, ip
	add	lr, lr, lr, asl #2
	ldrb	r5, [r1, #3]	@ zero_extendqisi2
	add	lr, r4, lr, asl #2
	add	ip, ip, ip, asl #1
	add	lr, lr, ip
	add	r5, r5, r6
	rsb	r5, r5, lr
	add	r5, r5, #15
	ldrb	ip, [r7, r5, asr #5]	@ zero_extendqisi2
	strb	ip, [r0, #6]
	ldrb	r6, [r1, #8]	@ zero_extendqisi2
	ldrb	r4, [r1, #7]	@ zero_extendqisi2
	ldrb	lr, [r1, #6]	@ zero_extendqisi2
	ldrb	ip, [r1, #9]	@ zero_extendqisi2
	ldrb	r5, [r1, #5]	@ zero_extendqisi2
	add	lr, lr, ip
	ldrb	ip, [r1, #10]	@ zero_extendqisi2
	add	r4, r4, r6
	sub	lr, lr, lr, asl #2
	ldrb	r6, [r1, #11]	@ zero_extendqisi2
	mov	lr, lr, asl #1
	add	ip, r5, ip
	add	r4, r4, r4, asl #2
	ldrb	r5, [r1, #4]	@ zero_extendqisi2
	add	r4, lr, r4, asl #2
	add	ip, ip, ip, asl #1
	add	r4, r4, ip
	add	r5, r5, r6
	rsb	r5, r5, r4
	add	r5, r5, #15
	ldrb	ip, [r7, r5, asr #5]	@ zero_extendqisi2
	strb	ip, [r0, #7]
	ldrb	ip, [r1, #10]	@ zero_extendqisi2
	ldrb	r5, [r1, #7]	@ zero_extendqisi2
	ldrb	r4, [r1, #8]	@ zero_extendqisi2
	ldrb	lr, [r1, #9]	@ zero_extendqisi2
	ldrb	r6, [r1, #6]	@ zero_extendqisi2
	add	r5, r5, ip
	ldrb	ip, [r1, #11]	@ zero_extendqisi2
	add	lr, r4, lr
	sub	r5, r5, r5, asl #2
	ldrb	r4, [r1, #5]	@ zero_extendqisi2
	add	lr, lr, lr, asl #2
	add	ip, r6, ip
	mov	r5, r5, asl #1
	ldrb	r6, [r1, #12]	@ zero_extendqisi2
	add	r5, r5, lr, asl #2
	add	ip, ip, ip, asl #1
	add	r5, r5, ip
	add	r4, r4, r6
	rsb	r4, r4, r5
	add	r4, r4, #15
	ldrb	ip, [r7, r4, asr #5]	@ zero_extendqisi2
	strb	ip, [r0, #8]
	ldrb	ip, [r1, #11]	@ zero_extendqisi2
	ldrb	r5, [r1, #8]	@ zero_extendqisi2
	ldrb	r4, [r1, #9]	@ zero_extendqisi2
	ldrb	lr, [r1, #10]	@ zero_extendqisi2
	ldrb	r6, [r1, #7]	@ zero_extendqisi2
	add	r5, r5, ip
	ldrb	ip, [r1, #12]	@ zero_extendqisi2
	add	lr, r4, lr
	sub	r5, r5, r5, asl #2
	ldrb	r4, [r1, #6]	@ zero_extendqisi2
	add	lr, lr, lr, asl #2
	add	ip, r6, ip
	mov	r5, r5, asl #1
	ldrb	r6, [r1, #13]	@ zero_extendqisi2
	add	r5, r5, lr, asl #2
	add	ip, ip, ip, asl #1
	add	r5, r5, ip
	add	r4, r4, r6
	rsb	r4, r4, r5
	add	r4, r4, #15
	ldrb	ip, [r7, r4, asr #5]	@ zero_extendqisi2
	strb	ip, [r0, #9]
	ldrb	ip, [r1, #12]	@ zero_extendqisi2
	ldrb	r5, [r1, #9]	@ zero_extendqisi2
	ldrb	r4, [r1, #10]	@ zero_extendqisi2
	ldrb	lr, [r1, #11]	@ zero_extendqisi2
	ldrb	r6, [r1, #8]	@ zero_extendqisi2
	add	r5, r5, ip
	ldrb	ip, [r1, #13]	@ zero_extendqisi2
	add	lr, r4, lr
	sub	r5, r5, r5, asl #2
	ldrb	r4, [r1, #7]	@ zero_extendqisi2
	add	lr, lr, lr, asl #2
	add	ip, r6, ip
	mov	r5, r5, asl #1
	ldrb	r6, [r1, #14]	@ zero_extendqisi2
	add	r5, r5, lr, asl #2
	add	ip, ip, ip, asl #1
	add	r5, r5, ip
	add	r4, r4, r6
	rsb	r4, r4, r5
	add	r4, r4, #15
	ldrb	ip, [r7, r4, asr #5]	@ zero_extendqisi2
	strb	ip, [r0, #10]
	ldrb	ip, [r1, #13]	@ zero_extendqisi2
	ldrb	r5, [r1, #10]	@ zero_extendqisi2
	ldrb	r4, [r1, #11]	@ zero_extendqisi2
	ldrb	lr, [r1, #12]	@ zero_extendqisi2
	ldrb	r6, [r1, #9]	@ zero_extendqisi2
	add	r5, r5, ip
	ldrb	ip, [r1, #14]	@ zero_extendqisi2
	add	lr, r4, lr
	sub	r5, r5, r5, asl #2
	ldrb	r4, [r1, #8]	@ zero_extendqisi2
	add	lr, lr, lr, asl #2
	add	ip, r6, ip
	mov	r5, r5, asl #1
	ldrb	r6, [r1, #15]	@ zero_extendqisi2
	add	r5, r5, lr, asl #2
	add	ip, ip, ip, asl #1
	add	r5, r5, ip
	add	r4, r4, r6
	rsb	r4, r4, r5
	add	r4, r4, #15
	ldrb	ip, [r7, r4, asr #5]	@ zero_extendqisi2
	strb	ip, [r0, #11]
	ldrb	ip, [r1, #14]	@ zero_extendqisi2
	ldrb	r5, [r1, #11]	@ zero_extendqisi2
	ldrb	r4, [r1, #12]	@ zero_extendqisi2
	ldrb	lr, [r1, #13]	@ zero_extendqisi2
	ldrb	r6, [r1, #10]	@ zero_extendqisi2
	add	r5, r5, ip
	ldrb	ip, [r1, #15]	@ zero_extendqisi2
	add	lr, r4, lr
	sub	r5, r5, r5, asl #2
	ldrb	r4, [r1, #9]	@ zero_extendqisi2
	add	lr, lr, lr, asl #2
	add	ip, r6, ip
	mov	r5, r5, asl #1
	ldrb	r6, [r1, #16]	@ zero_extendqisi2
	add	r5, r5, lr, asl #2
	add	ip, ip, ip, asl #1
	add	r5, r5, ip
	add	r4, r4, r6
	rsb	r4, r4, r5
	add	r4, r4, #15
	ldrb	ip, [r7, r4, asr #5]	@ zero_extendqisi2
	strb	ip, [r0, #12]
	ldrb	ip, [r1, #15]	@ zero_extendqisi2
	ldrb	r4, [r1, #12]	@ zero_extendqisi2
	ldrb	r6, [r1, #13]	@ zero_extendqisi2
	ldrb	lr, [r1, #14]	@ zero_extendqisi2
	ldrb	r5, [r1, #16]	@ zero_extendqisi2
	add	r4, r4, ip
	ldrb	ip, [r1, #11]	@ zero_extendqisi2
	add	lr, r6, lr
	sub	r4, r4, r4, asl #2
	ldrb	r6, [r1, #10]	@ zero_extendqisi2
	mov	r4, r4, asl #1
	add	ip, ip, r5
	add	lr, lr, lr, asl #2
	add	lr, r4, lr, asl #2
	add	ip, ip, ip, asl #1
	add	lr, lr, ip
	add	r5, r5, r6
	rsb	r5, r5, lr
	add	r5, r5, #15
	ldrb	ip, [r7, r5, asr #5]	@ zero_extendqisi2
	strb	ip, [r0, #13]
	ldrb	r6, [r1, #15]	@ zero_extendqisi2
	ldrb	r4, [r1, #16]	@ zero_extendqisi2
	ldrb	ip, [r1, #13]	@ zero_extendqisi2
	ldrb	r5, [r1, #14]	@ zero_extendqisi2
	ldrb	lr, [r1, #12]	@ zero_extendqisi2
	add	ip, ip, r4
	add	r5, r5, r6
	sub	ip, ip, ip, asl #2
	add	r5, r5, r5, asl #2
	add	lr, r4, lr
	mov	ip, ip, asl #1
	ldrb	r4, [r1, #11]	@ zero_extendqisi2
	add	ip, ip, r5, asl #2
	add	lr, lr, lr, asl #1
	add	lr, ip, lr
	add	r6, r6, r4
	rsb	r6, r6, lr
	add	r6, r6, #15
	ldrb	ip, [r7, r6, asr #5]	@ zero_extendqisi2
	strb	ip, [r0, #14]
	ldrb	ip, [r1, #16]	@ zero_extendqisi2
	ldrb	r5, [r1, #14]	@ zero_extendqisi2
	ldrb	r6, [r1, #15]	@ zero_extendqisi2
	add	lr, ip, r5
	ldrb	r4, [r1, #13]	@ zero_extendqisi2
	sub	lr, lr, lr, asl #2
	add	ip, r6, ip
	ldrb	r1, [r1, #12]	@ zero_extendqisi2
.LVL305:
	mov	lr, lr, asl #1
	add	ip, ip, ip, asl #2
	add	r4, r6, r4
	add	ip, lr, ip, asl #2
	add	r4, r4, r4, asl #1
	add	r5, r5, r1
	add	r4, ip, r4
	.loc 5 696 0 discriminator 1
	ldr	r1, [sp, #36]
	.loc 5 696 0 discriminator 3
	rsb	r5, r5, r4
	add	r10, r10, #1
.LVL306:
	add	r5, r5, #15
	.loc 5 696 0 discriminator 1
	cmp	r10, r1
	.loc 5 696 0 discriminator 3
	ldrb	r1, [r7, r5, asr #5]	@ zero_extendqisi2
	strb	r1, [r0, #15]
	add	r8, r8, r3
	mov	r1, fp
	add	r0, r0, r2
.LVL307:
	.loc 5 696 0 discriminator 1
	ldmeqfd	sp!, {r4, r5, r6, r7, r8, r9, r10, fp, pc}
.LVL308:
	add	fp, fp, r3
.LVL309:
	b	.L118
.L123:
	.align	2
.L122:
	.word	ff_crop_tab(GOT_PREL)+(.-(.LPIC21+8))
	.cfi_endproc
.LFE150:
	.size	put_no_rnd_mpeg4_qpel16_h_lowpass, .-put_no_rnd_mpeg4_qpel16_h_lowpass
	.align	2
	.type	put_no_rnd_mpeg4_qpel16_v_lowpass, %function
put_no_rnd_mpeg4_qpel16_v_lowpass:
.LFB151:
	.loc 5 696 0 is_stmt 1
	.cfi_startproc
	@ args = 0, pretend = 0, frame = 184
	@ frame_needed = 0, uses_anonymous_args = 0
.LVL310:
	mov	ip, r2, asl #2
	stmfd	sp!, {r4, r5, r6, r7, r8, r9, r10, fp, lr}
	.cfi_def_cfa_offset 36
	.cfi_offset 4, -36
	.cfi_offset 5, -32
	.cfi_offset 6, -28
	.cfi_offset 7, -24
	.cfi_offset 8, -20
	.cfi_offset 9, -16
	.cfi_offset 10, -12
	.cfi_offset 11, -8
	.cfi_offset 14, -4
	mov	lr, r2, asl #1
	mov	r4, ip
	add	fp, lr, r2
	add	r7, r4, r2
	sub	sp, sp, #188
	.cfi_def_cfa_offset 224
.LVL311:
	mov	r9, r7
	mov	r10, fp, asl #2
	str	r10, [sp, #24]
	str	r9, [sp, #56]
	mov	r10, r9, asl #1
	mov	r9, r3, asl #3
	str	lr, [sp, #36]
	str	r9, [sp, #8]
	ldr	lr, .L128
	str	lr, [sp, #16]
	.loc 5 696 0
	str	r1, [sp, #4]
	mov	lr, r10
	ldr	r1, [sp, #8]
.LVL312:
	mov	r10, r3, asl #4
	str	lr, [sp, #72]
	add	lr, lr, r2
	str	r10, [sp, #20]
	str	r0, [sp, #44]
.LVL313:
	str	lr, [sp, #76]
	ldr	r0, [sp, #24]
	rsb	lr, r3, r1
	mov	r10, r2, asl #3
	str	lr, [sp, #28]
	add	lr, r1, r3
	ldr	r1, [sp, #20]
	str	r10, [sp, #12]
	add	r0, r0, r2
	str	lr, [sp, #32]
	sub	r0, r0, #1
	rsb	lr, r3, r1
	ldr	r1, [sp, #12]
	str	r0, [sp, #92]
	ldr	r0, [sp, #24]
	str	r4, [sp, #48]
	str	lr, [sp, #40]
	rsb	lr, r2, r1
	str	lr, [sp, #64]
	add	lr, r1, r2
	sub	r1, r0, #1
	ldr	r0, [sp, #48]
	str	lr, [sp, #68]
	rsb	lr, r2, r2, asl #4
	str	lr, [sp, #96]
	str	r1, [sp, #84]
	ldr	lr, [sp, #16]
	sub	r1, r0, #1
	ldr	r0, [sp, #56]
.LPIC23:
	ldr	lr, [pc, lr]		@ tls_load_dot_plus_eight
	str	r1, [sp, #52]
	sub	r1, r0, #1
	str	lr, [sp, #16]
	ldr	lr, [sp, #36]
	str	r1, [sp, #60]
	ldr	r0, [sp, #76]
	mov	r8, r3, asl #1
	sub	r1, r0, #1
	ldr	r0, [sp, #72]
	add	ip, r8, r3
	str	r1, [sp, #80]
	sub	r1, r0, #1
	str	r1, [sp, #72]
	sub	r1, ip, #1
	str	r1, [sp, #24]
	ldr	r1, [sp, #4]
	mov	r7, ip, asl #2
	add	ip, r1, ip, asl #1
	sub	r1, fp, #1
	str	r1, [sp, #48]
	ldr	r1, [sp, #44]
	mov	r6, r3, asl #2
	add	fp, r1, fp, asl #1
	str	fp, [sp, #76]
	ldr	fp, [sp, #28]
	add	r5, r6, r3
	sub	r0, fp, #1
	str	r0, [sp, #28]
	ldr	r0, [sp, #4]
	mov	r4, r5, asl #1
	add	fp, r0, fp, asl #1
	ldr	r0, [sp, #32]
	add	r10, r7, r3
	sub	r0, r0, #1
	str	r0, [sp, #36]
	ldr	r0, [sp, #8]
	add	r9, r4, r3
	sub	r0, r0, #1
	str	r0, [sp, #32]
	ldr	r0, [sp, #40]
	sub	r3, r3, #1
.LVL314:
	sub	r0, r0, #1
	str	r0, [sp, #40]
	ldr	r0, [sp, #20]
	str	r3, [sp, #8]
	sub	r0, r0, #1
	str	r0, [sp, #20]
	ldr	r0, [sp, #64]
	sub	r8, r8, #1
	sub	r3, r0, #1
.LVL315:
	add	r0, r1, r0, asl #1
	str	r0, [sp, #112]
	ldr	r0, [sp, #68]
	sub	r10, r10, #1
	sub	r0, r0, #1
	str	r0, [sp, #88]
	ldr	r0, [sp, #12]
	sub	r7, r7, #1
	sub	r0, r0, #1
	str	r0, [sp, #12]
	ldr	r0, [sp, #96]
	sub	r6, r6, #1
	sub	r0, r0, #1
	str	r0, [sp, #144]
	ldr	r0, [sp, #4]
	sub	r5, r5, #1
	add	r8, r0, r8
	add	r5, r0, r5
	str	r8, [sp, #56]
	add	r7, r0, r7
	add	r8, r0, r10
	add	r6, r0, r6
	sub	r9, r9, #1
	sub	r4, r4, #1
	str	r8, [sp, #160]
	str	r7, [sp, #164]
	str	r6, [sp, #64]
	str	r5, [sp, #68]
	add	r5, r0, r9
	add	r4, r0, r4
	sub	lr, lr, #1
	str	r5, [sp, #168]
	mov	r5, r0
	ldr	r0, [sp, #92]
	str	r4, [sp, #172]
	add	r4, r1, lr
	str	r4, [sp, #140]
	add	r4, r1, r0
	ldr	r0, [sp, #84]
	str	r4, [sp, #96]
	add	r4, r1, r0
	ldr	r0, [sp, #52]
	str	r4, [sp, #100]
	add	r4, r1, r0
	ldr	r0, [sp, #60]
	str	r4, [sp, #132]
	add	r4, r1, r0
	ldr	r0, [sp, #80]
	str	r4, [sp, #128]
	add	r4, r1, r0
	ldr	r0, [sp, #72]
	str	r4, [sp, #104]
	add	r4, r1, r0
	ldr	r0, [sp, #24]
	str	r4, [sp, #108]
	add	r4, r5, r0
	ldr	r0, [sp, #48]
	sub	ip, ip, #1
	str	ip, [sp, #72]
	add	ip, r1, r0
	ldr	r0, [sp, #76]
	str	ip, [sp, #136]
	sub	ip, r0, #1
	ldr	r0, [sp, #28]
	str	ip, [sp, #124]
	add	ip, r5, r0
	ldr	r0, [sp, #36]
	str	ip, [sp, #76]
	sub	ip, fp, #1
	str	ip, [sp, #156]
	add	ip, r5, r0
	ldr	r0, [sp, #32]
	str	ip, [sp, #84]
	add	ip, r5, r0
	ldr	r0, [sp, #40]
	str	ip, [sp, #80]
	add	ip, r5, r0
	ldr	r0, [sp, #20]
	str	ip, [sp, #152]
	add	ip, r5, r0
	str	r4, [sp, #60]
	str	ip, [sp, #148]
	ldr	r0, [sp, #112]
	add	r3, r1, r3
	str	r3, [sp, #120]
	sub	r3, r0, #1
	ldr	r0, [sp, #88]
	str	r3, [sp, #92]
	add	r3, r1, r0
	ldr	r0, [sp, #12]
	ldr	lr, [sp, #8]
	str	r3, [sp, #112]
	add	r3, r1, r0
	ldr	r0, [sp, #144]
	add	ip, r5, lr
	sub	r2, r2, #1
.LVL316:
	str	r3, [sp, #116]
.LBB320:
	.loc 5 696 0 is_stmt 0 discriminator 3
	ldr	lr, [sp, #16]
	add	r3, r1, r0
	str	r3, [sp, #88]
	add	r3, r1, r2
	str	ip, [sp, #52]
	str	r3, [sp, #144]
	sub	ip, r5, #1
	add	r3, lr, #1024
	add	r2, r1, #16
.LVL317:
	str	ip, [sp, #48]
	str	r2, [sp, #180]
	str	r3, [sp, #4]
.LVL318:
.L125:
	ldr	r3, [sp, #48]
	ldrb	r0, [r3, #1]!	@ zero_extendqisi2
.LVL319:
	str	r3, [sp, #48]
.LVL320:
	ldr	r3, [sp, #56]
.LVL321:
	ldrb	r7, [r3, #1]!	@ zero_extendqisi2
	str	r3, [sp, #56]
	ldr	r3, [sp, #52]
	add	ip, r0, r7
	ldrb	r8, [r3, #1]!	@ zero_extendqisi2
	str	r3, [sp, #52]
.LVL322:
	ldr	r3, [sp, #60]
	add	r1, r0, r8
	ldrb	r6, [r3, #1]!	@ zero_extendqisi2
	str	r3, [sp, #60]
.LVL323:
	ldr	r3, [sp, #64]
	sub	ip, ip, ip, asl #2
	ldrb	r5, [r3, #1]!	@ zero_extendqisi2
	str	r3, [sp, #64]
.LVL324:
	ldr	r3, [sp, #68]
	mov	ip, ip, asl #1
	ldrb	r2, [r3, #1]!	@ zero_extendqisi2
	str	r3, [sp, #68]
	ldr	r3, [sp, #72]
	add	r1, r1, r1, asl #2
	ldrb	r4, [r3, #1]!	@ zero_extendqisi2
	str	r3, [sp, #72]
	ldr	r3, [sp, #76]
	add	r1, ip, r1, asl #2
	ldrb	ip, [r3, #1]!	@ zero_extendqisi2
	add	r10, r0, r6
	str	r3, [sp, #76]
	ldr	r3, [sp, #80]
	mov	lr, r2
.LVL325:
	sub	r10, r10, r10, asl #2
	add	r2, r8, r7
.LVL326:
	add	r9, r8, r6
	str	ip, [sp, #8]
.LVL327:
	add	r2, r2, r2, asl #2
	ldrb	ip, [r3, #1]!	@ zero_extendqisi2
	mov	r10, r10, asl #1
	add	r10, r10, r2, asl #2
	add	r9, r9, r9, asl #1
	add	r2, r0, r5
	str	r3, [sp, #80]
.LVL328:
	ldr	r3, [sp, #84]
	add	r1, r1, r9
	add	r2, r2, r2, asl #1
	add	r9, r7, r5
	add	fp, r8, r5
	add	r2, r10, r2
	rsb	r1, r9, r1
	ldrb	r9, [r3, #1]!	@ zero_extendqisi2
	add	r10, r7, lr
	str	r9, [sp, #36]
	str	r2, [sp, #176]
	add	r9, r7, r6
	sub	fp, fp, fp, asl #2
	str	r3, [sp, #84]
.LVL329:
	ldr	r3, [sp, #172]
	mov	fp, fp, asl #1
	sub	r10, r10, r10, asl #2
	add	r9, r9, r9, asl #2
	add	r9, fp, r9, asl #2
	mov	fp, r10, asl #1
	ldrb	r10, [r3, #1]!	@ zero_extendqisi2
	str	r10, [sp, #16]
	add	r10, r0, lr
	add	r10, r10, r10, asl #1
	add	r9, r9, r10
	add	r10, r6, r5
	add	r10, r10, r10, asl #2
	add	r10, fp, r10, asl #2
	str	r4, [sp, #12]
	add	fp, r6, r4
	ldr	r4, [sp, #4]
.LVL330:
	str	r3, [sp, #172]
.LVL331:
	add	r1, r1, #15
	ldr	r3, [sp, #168]
	ldrb	r1, [r4, r1, asr #5]	@ zero_extendqisi2
	ldr	r4, [sp, #164]
	ldr	r2, [sp, #160]
	str	lr, [sp, #24]
	ldrb	lr, [r3, #1]!	@ zero_extendqisi2
.LVL332:
	str	r3, [sp, #168]
.LVL333:
	ldrb	r3, [r4, #1]!	@ zero_extendqisi2
	str	r4, [sp, #164]
.LVL334:
	ldrb	r4, [r2, #1]!	@ zero_extendqisi2
	str	r2, [sp, #160]
.LVL335:
	ldr	r2, [sp, #156]
	str	r4, [sp, #32]
.LVL336:
	ldrb	r4, [r2, #1]!	@ zero_extendqisi2
	str	r2, [sp, #156]
.LVL337:
	ldr	r2, [sp, #152]
	str	r4, [sp, #20]
.LVL338:
	ldrb	r4, [r2, #1]!	@ zero_extendqisi2
	str	r2, [sp, #152]
.LVL339:
	ldr	r2, [sp, #148]
	str	r4, [sp, #28]
.LVL340:
	ldrb	r4, [r2, #1]!	@ zero_extendqisi2
	str	r4, [sp, #40]
	ldr	r4, [sp, #44]
	str	r2, [sp, #148]
.LVL341:
	strb	r1, [r4], #1
	str	r4, [sp, #44]
.LVL342:
	ldr	r4, [sp, #24]
.LVL343:
	ldr	r2, [sp, #176]
	add	r1, r8, r4
	rsb	r2, r1, r2
	ldr	r1, [sp, #12]
	add	r2, r2, #15
	add	r1, r8, r1
	add	r1, r1, r1, asl #1
	add	r10, r10, r1
	add	r1, r5, r4
	ldr	r4, [sp, #4]
	sub	fp, fp, fp, asl #2
	ldrb	r2, [r4, r2, asr #5]	@ zero_extendqisi2
	ldr	r4, [sp, #144]
	add	r1, r1, r1, asl #2
	strb	r2, [r4, #1]!
	str	r4, [sp, #144]
	ldr	r4, [sp, #12]
	mov	fp, fp, asl #1
	add	r2, r0, r4
	rsb	r9, r2, r9
	ldr	r2, [sp, #8]
	add	fp, fp, r1, asl #2
	add	r0, r0, r2
.LVL344:
	add	r2, r7, r2
	ldr	r1, [sp, #8]
	add	r2, r2, r2, asl #1
	add	fp, fp, r2
	ldr	r2, [sp, #24]
	add	r1, r5, r1
	add	r2, r2, r4
	sub	r1, r1, r1, asl #2
	ldr	r4, [sp, #4]
	rsb	r10, r0, r10
	add	r2, r2, r2, asl #2
	add	r0, r6, ip
	mov	r1, r1, asl #1
	add	r1, r1, r2, asl #2
	add	r0, r0, r0, asl #1
	ldr	r2, [sp, #24]
	add	r9, r9, #15
	ldrb	r9, [r4, r9, asr #5]	@ zero_extendqisi2
	add	r1, r1, r0
	ldr	r4, [sp, #12]
	ldr	r0, [sp, #8]
	add	r2, r2, ip
	add	r0, r4, r0
	sub	r2, r2, r2, asl #2
	add	r8, r8, ip
.LVL345:
	add	r0, r0, r0, asl #2
	mov	r2, r2, asl #1
	rsb	fp, r8, fp
	add	r2, r2, r0, asl #2
	ldr	r8, [sp, #36]
	ldr	r0, [sp, #12]
	mov	r4, r8
	add	r7, r7, r8
.LVL346:
	add	r8, r0, r8
	sub	r8, r8, r8, asl #2
	mov	r0, r8, asl #1
	ldr	r8, [sp, #140]
	add	r10, r10, #15
	strb	r9, [r8, #1]!
	str	r8, [sp, #140]
	ldr	r8, [sp, #4]
	rsb	r1, r7, r1
	ldrb	r9, [r8, r10, asr #5]	@ zero_extendqisi2
	mov	r7, r4
	add	r8, r5, r4
	ldr	r4, [sp, #8]
	add	r8, r8, r8, asl #1
	ldr	r10, [sp, #16]
	add	r2, r2, r8
	add	r8, r4, ip
	add	r8, r8, r8, asl #2
	add	r6, r6, r10
.LVL347:
	add	r0, r0, r8, asl #2
	mov	r8, r10
	add	r10, r4, r10
	ldr	r4, [sp, #136]
	add	fp, fp, #15
	strb	r9, [r4, #1]!
	ldr	r9, [sp, #24]
	str	r4, [sp, #136]
	ldr	r4, [sp, #4]
	add	r9, r9, r8
	ldrb	fp, [r4, fp, asr #5]	@ zero_extendqisi2
	sub	r10, r10, r10, asl #2
	mov	r4, r7
	add	r7, ip, r7
	add	r9, r9, r9, asl #1
	add	r7, r7, r7, asl #2
	mov	r10, r10, asl #1
	add	r0, r0, r9
	add	r10, r10, r7, asl #2
	ldr	r7, [sp, #12]
	ldr	r9, [sp, #132]
	rsb	r2, r6, r2
	strb	fp, [r9, #1]!
	str	r9, [sp, #132]
	ldr	r9, [sp, #16]
	add	r6, ip, lr
	add	fp, r4, r9
	sub	r6, r6, r6, asl #2
	add	fp, fp, fp, asl #2
	mov	r6, r6, asl #1
	add	r8, r7, lr
	add	r6, r6, fp, asl #2
	ldr	fp, [sp, #16]
	mov	r7, r4
	add	r8, r8, r8, asl #1
	ldr	r4, [sp, #4]
	add	r5, r5, lr
.LVL348:
	add	r9, r7, r3
	add	r10, r10, r8
	add	r7, fp, lr
	mov	r8, lr
	add	r1, r1, #15
	ldr	lr, [sp, #128]
.LVL349:
	ldrb	r1, [r4, r1, asr #5]	@ zero_extendqisi2
	strb	r1, [lr, #1]!
	rsb	r0, r5, r0
	str	lr, [sp, #128]
	ldr	r5, [sp, #24]
	ldr	lr, [sp, #32]
	add	r4, r5, r3
	add	r1, fp, lr
	ldr	r5, [sp, #8]
	ldr	fp, [sp, #4]
	sub	r9, r9, r9, asl #2
	add	r7, r7, r7, asl #2
	add	r2, r2, #15
	mov	r9, r9, asl #1
	ldrb	r2, [fp, r2, asr #5]	@ zero_extendqisi2
	add	r5, r5, r3
	add	fp, ip, lr
	rsb	r10, r4, r10
	str	ip, [sp, #24]
.LVL350:
	mov	r4, lr
	mov	ip, lr
.LVL351:
	add	r9, r9, r7, asl #2
	ldr	lr, [sp, #12]
	ldr	r7, [sp, #124]
	add	r5, r5, r5, asl #1
	strb	r2, [r7, #1]!
	add	lr, lr, r4
	add	r6, r6, r5
	add	r4, r8, r3
	str	r8, [sp, #12]
.LVL352:
	mov	r5, r8
	str	r7, [sp, #124]
	ldr	r8, [sp, #20]
.LVL353:
	ldr	r7, [sp, #36]
	add	r5, r5, r8
.LVL354:
	add	r2, r7, r8
	rsb	r6, lr, r6
	add	r8, r3, ip
	ldr	lr, [sp, #20]
	ldr	ip, [sp, #8]
	add	fp, fp, fp, asl #1
	ldr	r7, [sp, #4]
	add	ip, ip, lr
	add	r9, r9, fp
	ldr	lr, [sp, #28]
	ldr	fp, [sp, #16]
	add	r0, r0, #15
	ldrb	r0, [r7, r0, asr #5]	@ zero_extendqisi2
	sub	r1, r1, r1, asl #2
	add	r7, r3, lr
	add	lr, fp, lr
	ldr	fp, [sp, #120]
	add	r4, r4, r4, asl #2
	mov	r1, r1, asl #1
	strb	r0, [fp, #1]!
	add	r1, r1, r4, asl #2
	str	fp, [sp, #120]
	ldr	r4, [sp, #32]
	ldr	fp, [sp, #20]
	add	r10, r10, #15
	add	r0, r4, fp
	ldr	fp, [sp, #4]
	sub	r5, r5, r5, asl #2
	ldrb	r10, [fp, r10, asr #5]	@ zero_extendqisi2
	ldr	fp, [sp, #40]
	add	r2, r2, r2, asl #1
	add	r8, r8, r8, asl #2
	add	r6, r6, #15
	mov	r5, r5, asl #1
	str	r6, [sp, #8]
	rsb	r9, ip, r9
	ldr	r6, [sp, #28]
	add	fp, r4, fp
	ldr	ip, [sp, #24]
	ldr	r4, [sp, #12]
	add	r1, r1, r2
	add	r5, r5, r8, asl #2
	ldr	r2, [sp, #40]
	ldr	r8, [sp, #20]
	add	ip, ip, r6
	add	r2, r4, r2
	add	r4, r8, r6
	ldr	r6, [sp, #116]
	add	lr, lr, lr, asl #1
	strb	r10, [r6, #1]!
	mov	r10, r8
	ldr	r8, [sp, #40]
	str	r6, [sp, #116]
	add	r10, r10, r8
	ldmib	sp, {r6, r8}
	rsb	r1, ip, r1
	ldrb	r6, [r6, r8, asr #5]	@ zero_extendqisi2
	ldr	ip, [sp, #40]
	ldr	r8, [sp, #36]
	add	r5, r5, lr
	sub	r7, r7, r7, asl #2
	ldr	lr, [sp, #28]
	add	r8, r8, ip
	add	r0, r0, r0, asl #2
	mov	r7, r7, asl #1
	str	r8, [sp, #8]
	add	r7, r7, r0, asl #2
	add	r8, lr, ip
	mov	r0, ip
	add	lr, r3, ip
	ldr	ip, [sp, #112]
	add	r9, r9, #15
	strb	r6, [ip, #1]!
	str	ip, [sp, #112]
	ldr	ip, [sp, #4]
	add	r2, r2, r2, asl #1
	ldrb	r6, [ip, r9, asr #5]	@ zero_extendqisi2
	ldr	r9, [sp, #8]
	ldr	ip, [sp, #108]
	rsb	r5, r9, r5
	ldr	r9, [sp, #16]
	sub	fp, fp, fp, asl #2
	add	r4, r4, r4, asl #2
	add	r9, r9, r0
	add	r7, r7, r2
	ldr	r0, [sp, #32]
	ldr	r2, [sp, #28]
	mov	fp, fp, asl #1
	sub	r10, r10, r10, asl #2
	strb	r6, [ip, #1]!
	add	fp, fp, r4, asl #2
	add	r8, r8, r8, asl #2
	str	ip, [sp, #108]
	mov	r10, r10, asl #1
	ldr	r6, [sp, #4]
	ldr	r4, [sp, #12]
	add	r0, r0, r2
	add	r10, r10, r8, asl #2
	ldr	r8, [sp, #20]
	add	ip, r4, r2
	add	r0, r0, r0, asl #1
	ldr	r2, [sp, #104]
	add	r1, r1, #15
	ldrb	r1, [r6, r1, asr #5]	@ zero_extendqisi2
	add	r10, r10, r0
	add	r5, r5, #15
	add	r0, r3, r8
	ldr	r3, [sp, #100]
.LVL355:
	strb	r1, [r2, #1]!
	rsb	r7, r9, r7
	str	r2, [sp, #104]
	ldrb	r2, [r6, r5, asr #5]	@ zero_extendqisi2
	strb	r2, [r3, #1]!
	add	r7, r7, #15
	str	r3, [sp, #100]
	ldr	r3, [sp, #96]
	ldrb	r2, [r6, r7, asr #5]	@ zero_extendqisi2
	add	lr, lr, lr, asl #1
	strb	r2, [r3, #1]!
	add	fp, fp, lr
	str	r3, [sp, #96]
.LBE320:
	.loc 5 696 0 discriminator 1
	ldr	r4, [sp, #44]
	ldr	r3, [sp, #180]
.LBB321:
	.loc 5 696 0 discriminator 3
	rsb	fp, ip, fp
	add	fp, fp, #15
.LBE321:
	.loc 5 696 0 discriminator 1
	cmp	r4, r3
.LBB322:
	.loc 5 696 0 discriminator 3
	ldr	r3, [sp, #92]
	ldrb	r2, [r6, fp, asr #5]	@ zero_extendqisi2
	rsb	r10, r0, r10
	strb	r2, [r3, #1]!
	add	r10, r10, #15
	str	r3, [sp, #92]
	ldr	r3, [sp, #88]
	ldrb	r2, [r6, r10, asr #5]	@ zero_extendqisi2
	strb	r2, [r3, #1]!
	str	r3, [sp, #88]
.LVL356:
.LBE322:
	.loc 5 696 0 discriminator 1
	bne	.L125
	.loc 5 696 0
	add	sp, sp, #188
	.cfi_def_cfa_offset 36
	@ sp needed
	ldmfd	sp!, {r4, r5, r6, r7, r8, r9, r10, fp, pc}
.L129:
	.align	2
.L128:
	.word	ff_crop_tab(GOT_PREL)+(.-(.LPIC23+8))
	.cfi_endproc
.LFE151:
	.size	put_no_rnd_mpeg4_qpel16_v_lowpass, .-put_no_rnd_mpeg4_qpel16_v_lowpass
	.align	2
	.type	put_no_rnd_qpel8_mc20_c, %function
put_no_rnd_qpel8_mc20_c:
.LFB153:
	.loc 5 696 0 is_stmt 1
	.cfi_startproc
	@ args = 0, pretend = 0, frame = 0
	@ frame_needed = 0, uses_anonymous_args = 0
.LVL357:
	str	lr, [sp, #-4]!
	.cfi_def_cfa_offset 4
	.cfi_offset 14, -4
	mov	r3, #8
	sub	sp, sp, #12
	.cfi_def_cfa_offset 16
	.loc 5 696 0
	str	r3, [sp]
	mov	r3, r2
	bl	put_no_rnd_mpeg4_qpel8_h_lowpass(PLT)
.LVL358:
	add	sp, sp, #12
	.cfi_def_cfa_offset 4
	@ sp needed
	ldr	pc, [sp], #4
	.cfi_endproc
.LFE153:
	.size	put_no_rnd_qpel8_mc20_c, .-put_no_rnd_qpel8_mc20_c
	.align	2
	.type	put_no_rnd_qpel8_mc02_c, %function
put_no_rnd_qpel8_mc02_c:
.LFB156:
	.loc 5 696 0
	.cfi_startproc
	@ args = 0, pretend = 0, frame = 152
	@ frame_needed = 0, uses_anonymous_args = 0
.LVL359:
	stmfd	sp!, {r4, r5, r6, r7, r8, r9, r10, fp, lr}
	.cfi_def_cfa_offset 36
	.cfi_offset 4, -36
	.cfi_offset 5, -32
	.cfi_offset 6, -28
	.cfi_offset 7, -24
	.cfi_offset 8, -20
	.cfi_offset 9, -16
	.cfi_offset 10, -12
	.cfi_offset 11, -8
	.cfi_offset 14, -4
.LBB323:
.LBB324:
	.loc 6 64 0
	add	lr, r1, r2
	add	ip, lr, r2
	.loc 6 61 0
	ldrb	r7, [r1, r2]	@ zero_extendqisi2
	ldrb	r5, [ip, #4]	@ zero_extendqisi2
	ldrb	r9, [lr, #1]	@ zero_extendqisi2
	ldrb	r8, [ip, #5]	@ zero_extendqisi2
	ldrb	r6, [lr, #4]	@ zero_extendqisi2
	ldrb	r10, [lr, #5]	@ zero_extendqisi2
	orr	r8, r5, r8, asl #8
	orr	r7, r7, r9, asl #8
	ldrb	r5, [r1]	@ zero_extendqisi2
	ldrb	r9, [r1, #1]	@ zero_extendqisi2
	ldrb	r4, [r1, r2, asl #1]	@ zero_extendqisi2
	ldrb	fp, [ip, #1]	@ zero_extendqisi2
	orr	r10, r6, r10, asl #8
	orr	r9, r5, r9, asl #8
	ldrb	r6, [r1, #4]	@ zero_extendqisi2
	ldrb	r5, [r1, #5]	@ zero_extendqisi2
.LBE324:
.LBE323:
	.loc 5 696 0
	sub	sp, sp, #156
	.cfi_def_cfa_offset 192
.LVL360:
.LBB327:
.LBB325:
	.loc 6 61 0
	orr	r5, r6, r5, asl #8
	orr	r4, r4, fp, asl #8
	ldrb	r6, [ip, #6]	@ zero_extendqisi2
	ldrb	fp, [ip, #2]	@ zero_extendqisi2
	str	r5, [sp, #4]
	ldrb	r5, [lr, #2]	@ zero_extendqisi2
	orr	r8, r8, r6, asl #16
	orr	r4, r4, fp, asl #16
	ldrb	r6, [lr, #6]	@ zero_extendqisi2
	ldrb	fp, [ip, #3]	@ zero_extendqisi2
	orr	r7, r7, r5, asl #16
	ldrb	r5, [r1, #2]	@ zero_extendqisi2
	orr	r4, r4, fp, asl #24
	orr	r6, r10, r6, asl #16
	ldr	fp, [sp, #4]
	ldrb	r10, [r1, #6]	@ zero_extendqisi2
	orr	r5, r9, r5, asl #16
	ldrb	r9, [ip, #7]	@ zero_extendqisi2
	orr	r10, fp, r10, asl #16
	ldrb	fp, [lr, #3]	@ zero_extendqisi2
	orr	r9, r8, r9, asl #24
	ldrb	r8, [lr, #7]	@ zero_extendqisi2
	orr	r7, r7, fp, asl #24
	ldrb	fp, [r1, #3]	@ zero_extendqisi2
	orr	r6, r6, r8, asl #24
	ldrb	r8, [r1, #7]	@ zero_extendqisi2
	orr	r5, r5, fp, asl #24
	.loc 6 64 0
	add	fp, ip, r2
	.loc 6 61 0
	orr	r10, r10, r8, asl #24
	str	r4, [sp, #40]
	.loc 6 62 0
	ldrb	r8, [r1, #8]	@ zero_extendqisi2
	.loc 6 64 0
	add	r4, fp, r2
	.loc 6 62 0
	ldrb	r1, [lr, #8]	@ zero_extendqisi2
.LVL361:
	.loc 6 61 0
	str	r7, [sp, #24]
	str	r6, [sp, #28]
	str	r5, [sp, #8]
	str	r10, [sp, #12]
	ldrb	r7, [fp, #1]	@ zero_extendqisi2
	.loc 6 62 0
	strb	r1, [sp, #32]
	.loc 6 61 0
	str	r9, [sp, #44]
	ldrb	r1, [lr, r2, asl #1]	@ zero_extendqisi2
	ldrb	r9, [r4, #5]	@ zero_extendqisi2
	ldrb	r5, [r4, #4]	@ zero_extendqisi2
	ldrb	r6, [ip, r2, asl #1]	@ zero_extendqisi2
	ldrb	r10, [r4, #1]	@ zero_extendqisi2
	.loc 6 62 0
	strb	r8, [sp, #16]
.LVL362:
	.loc 6 61 0
	ldrb	lr, [fp, #4]	@ zero_extendqisi2
	ldrb	r8, [fp, #5]	@ zero_extendqisi2
	orr	r1, r1, r7, asl #8
	orr	r5, r5, r9, asl #8
	ldrb	r7, [fp, #2]	@ zero_extendqisi2
	ldrb	r9, [r4, #6]	@ zero_extendqisi2
	orr	r6, r6, r10, asl #8
	orr	lr, lr, r8, asl #8
	ldrb	r10, [r4, #2]	@ zero_extendqisi2
	ldrb	r8, [fp, #6]	@ zero_extendqisi2
	orr	r1, r1, r7, asl #16
	orr	r5, r5, r9, asl #16
	ldrb	r7, [fp, #3]	@ zero_extendqisi2
	ldrb	r9, [r4, #7]	@ zero_extendqisi2
	orr	r6, r6, r10, asl #16
	orr	lr, lr, r8, asl #16
	ldrb	r10, [r4, #3]	@ zero_extendqisi2
	ldrb	r8, [fp, #7]	@ zero_extendqisi2
	orr	r7, r1, r7, asl #24
	.loc 6 62 0
	ldrb	ip, [ip, #8]	@ zero_extendqisi2
.LVL363:
	.loc 6 64 0
	add	r1, r4, r2
	.loc 6 61 0
	orr	r5, r5, r9, asl #24
	.loc 6 62 0
	ldrb	r9, [r4, #8]	@ zero_extendqisi2
	.loc 6 61 0
	orr	r6, r6, r10, asl #24
	orr	lr, lr, r8, asl #24
	str	r7, [sp, #56]
	.loc 6 62 0
	strb	ip, [sp, #48]
.LVL364:
	.loc 6 61 0
	ldrb	r7, [r1, #5]	@ zero_extendqisi2
	ldrb	ip, [r1, #4]	@ zero_extendqisi2
	.loc 6 62 0
	strb	r9, [sp, #80]
	ldrb	r9, [fp, #8]	@ zero_extendqisi2
	.loc 6 64 0
	add	r10, r1, r2
	.loc 6 61 0
	str	r6, [sp, #72]
	str	r5, [sp, #76]
	str	lr, [sp, #60]
	ldrb	r5, [r1, #2]	@ zero_extendqisi2
	ldrb	lr, [r1, #3]	@ zero_extendqisi2
	ldrb	r6, [r1, #1]	@ zero_extendqisi2
	.loc 6 62 0
	strb	r9, [sp, #64]
.LVL365:
	.loc 6 61 0
	ldrb	r9, [fp, r2, asl #1]	@ zero_extendqisi2
	.loc 6 64 0
	add	r8, r10, r2
	.loc 6 61 0
	orr	ip, ip, r7, asl #8
	ldrb	r7, [r1, #7]	@ zero_extendqisi2
	str	r7, [sp, #4]
	orr	r6, r9, r6, asl #8
	ldrb	r7, [r8, #1]	@ zero_extendqisi2
	ldrb	r9, [r1, r2, asl #1]	@ zero_extendqisi2
	ldrb	fp, [r1, #6]	@ zero_extendqisi2
	ldrb	r4, [r4, r2, asl #1]	@ zero_extendqisi2
	orr	r7, r9, r7, asl #8
	ldrb	r9, [r10, #1]	@ zero_extendqisi2
	orr	ip, ip, fp, asl #16
	orr	r4, r4, r9, asl #8
	ldrb	fp, [r8, #4]	@ zero_extendqisi2
	ldrb	r9, [r8, #5]	@ zero_extendqisi2
	orr	r6, r6, r5, asl #16
	orr	fp, fp, r9, asl #8
	ldrb	r5, [r10, #4]	@ zero_extendqisi2
	ldrb	r9, [r10, #5]	@ zero_extendqisi2
	orr	r6, r6, lr, asl #24
	orr	r5, r5, r9, asl #8
	ldrb	r9, [r10, #2]	@ zero_extendqisi2
	ldrb	lr, [r8, #2]	@ zero_extendqisi2
	orr	r9, r4, r9, asl #16
	ldrb	r4, [r10, #6]	@ zero_extendqisi2
	orr	r7, r7, lr, asl #16
	orr	r5, r5, r4, asl #16
	ldrb	lr, [r8, #6]	@ zero_extendqisi2
	ldr	r4, [sp, #4]
	orr	fp, fp, lr, asl #16
	orr	ip, ip, r4, asl #24
	ldrb	lr, [r8, #3]	@ zero_extendqisi2
	ldrb	r4, [r10, #3]	@ zero_extendqisi2
	orr	r7, r7, lr, asl #24
	orr	r4, r9, r4, asl #24
	ldrb	lr, [r8, #7]	@ zero_extendqisi2
	ldrb	r9, [r10, #7]	@ zero_extendqisi2
	.loc 6 62 0
	ldrb	r1, [r1, #8]	@ zero_extendqisi2
.LVL366:
	.loc 6 61 0
	orr	fp, fp, lr, asl #24
	orr	r5, r5, r9, asl #24
	.loc 6 62 0
	ldrb	lr, [r8, #8]	@ zero_extendqisi2
	ldrb	r9, [r10, #8]	@ zero_extendqisi2
	.loc 6 64 0
	add	r8, r8, r2
	.loc 6 61 0
	str	r6, [sp, #88]
	str	ip, [sp, #92]
	.loc 6 62 0
	strb	r1, [sp, #96]
.LVL367:
	.loc 6 61 0
	str	r4, [sp, #104]
	str	r5, [sp, #108]
	ldrb	r4, [r10, r2, asl #1]	@ zero_extendqisi2
	.loc 6 62 0
	strb	lr, [sp, #128]
	.loc 6 61 0
	str	r7, [sp, #120]
	str	fp, [sp, #124]
	.loc 6 62 0
	strb	r9, [sp, #112]
.LVL368:
	.loc 6 61 0
	ldrb	r5, [r8, #1]	@ zero_extendqisi2
	ldrb	r1, [r8, #4]	@ zero_extendqisi2
	ldrb	r3, [r8, #5]	@ zero_extendqisi2
	ldrb	lr, [r8, #2]	@ zero_extendqisi2
	ldrb	ip, [r8, #6]	@ zero_extendqisi2
	ldrb	r6, [r8, #3]	@ zero_extendqisi2
	orr	r4, r4, r5, asl #8
	orr	r3, r1, r3, asl #8
	ldrb	r5, [r8, #7]	@ zero_extendqisi2
	orr	r1, r4, lr, asl #16
	orr	r3, r3, ip, asl #16
	orr	lr, r1, r6, asl #24
	orr	ip, r3, r5, asl #24
	.loc 6 62 0
	ldrb	r4, [r8, #8]	@ zero_extendqisi2
.LBE325:
.LBE327:
	.loc 5 696 0 discriminator 1
	add	r1, sp, #8
	mov	r3, #16
.LBB328:
.LBB326:
	.loc 6 61 0
	str	lr, [sp, #136]
	str	ip, [sp, #140]
	.loc 6 62 0
	strb	r4, [sp, #144]
.LVL369:
.LBE326:
.LBE328:
	.loc 5 696 0 discriminator 1
	bl	put_no_rnd_mpeg4_qpel8_v_lowpass(PLT)
.LVL370:
	.loc 5 696 0 is_stmt 0
	add	sp, sp, #156
	.cfi_def_cfa_offset 36
	@ sp needed
	ldmfd	sp!, {r4, r5, r6, r7, r8, r9, r10, fp, pc}
	.cfi_endproc
.LFE156:
	.size	put_no_rnd_qpel8_mc02_c, .-put_no_rnd_qpel8_mc02_c
	.align	2
	.type	put_no_rnd_qpel8_mc22_c, %function
put_no_rnd_qpel8_mc22_c:
.LFB172:
	.loc 5 696 0 is_stmt 1
	.cfi_startproc
	@ args = 0, pretend = 0, frame = 72
	@ frame_needed = 0, uses_anonymous_args = 0
.LVL371:
	stmfd	sp!, {r4, r5, r6, lr}
	.cfi_def_cfa_offset 16
	.cfi_offset 4, -16
	.cfi_offset 5, -12
	.cfi_offset 6, -8
	.cfi_offset 14, -4
	sub	sp, sp, #80
	.cfi_def_cfa_offset 96
	.loc 5 696 0
	mov	r5, r2
	add	r4, sp, #8
	mov	r2, #9
.LVL372:
	mov	r6, r0
	mov	r3, r5
	mov	r0, r4
.LVL373:
	str	r2, [sp]
	mov	r2, #8
	bl	put_no_rnd_mpeg4_qpel8_h_lowpass(PLT)
.LVL374:
	.loc 5 696 0 is_stmt 0 discriminator 1
	mov	r0, r6
	mov	r1, r4
	mov	r2, r5
	mov	r3, #8
	bl	put_no_rnd_mpeg4_qpel8_v_lowpass(PLT)
.LVL375:
	.loc 5 696 0
	add	sp, sp, #80
	.cfi_def_cfa_offset 16
	@ sp needed
	ldmfd	sp!, {r4, r5, r6, pc}
	.cfi_endproc
.LFE172:
	.size	put_no_rnd_qpel8_mc22_c, .-put_no_rnd_qpel8_mc22_c
	.align	2
	.type	put_no_rnd_qpel16_mc20_c, %function
put_no_rnd_qpel16_mc20_c:
.LFB174:
	.loc 5 696 0 is_stmt 1
	.cfi_startproc
	@ args = 0, pretend = 0, frame = 0
	@ frame_needed = 0, uses_anonymous_args = 0
.LVL376:
	str	lr, [sp, #-4]!
	.cfi_def_cfa_offset 4
	.cfi_offset 14, -4
	mov	r3, #16
	sub	sp, sp, #12
	.cfi_def_cfa_offset 16
	.loc 5 696 0
	str	r3, [sp]
	mov	r3, r2
	bl	put_no_rnd_mpeg4_qpel16_h_lowpass(PLT)
.LVL377:
	add	sp, sp, #12
	.cfi_def_cfa_offset 4
	@ sp needed
	ldr	pc, [sp], #4
	.cfi_endproc
.LFE174:
	.size	put_no_rnd_qpel16_mc20_c, .-put_no_rnd_qpel16_mc20_c
	.align	2
	.type	put_no_rnd_qpel16_mc22_c, %function
put_no_rnd_qpel16_mc22_c:
.LFB193:
	.loc 5 696 0
	.cfi_startproc
	@ args = 0, pretend = 0, frame = 272
	@ frame_needed = 0, uses_anonymous_args = 0
.LVL378:
	stmfd	sp!, {r4, r5, r6, lr}
	.cfi_def_cfa_offset 16
	.cfi_offset 4, -16
	.cfi_offset 5, -12
	.cfi_offset 6, -8
	.cfi_offset 14, -4
	sub	sp, sp, #280
	.cfi_def_cfa_offset 296
	.loc 5 696 0
	mov	r5, r2
	add	r4, sp, #8
	mov	r2, #17
.LVL379:
	mov	r6, r0
	mov	r3, r5
	mov	r0, r4
.LVL380:
	str	r2, [sp]
	mov	r2, #16
	bl	put_no_rnd_mpeg4_qpel16_h_lowpass(PLT)
.LVL381:
	.loc 5 696 0 is_stmt 0 discriminator 1
	mov	r0, r6
	mov	r1, r4
	mov	r2, r5
	mov	r3, #16
	bl	put_no_rnd_mpeg4_qpel16_v_lowpass(PLT)
.LVL382:
	.loc 5 696 0
	add	sp, sp, #280
	.cfi_def_cfa_offset 16
	@ sp needed
	ldmfd	sp!, {r4, r5, r6, pc}
	.cfi_endproc
.LFE193:
	.size	put_no_rnd_qpel16_mc22_c, .-put_no_rnd_qpel16_mc22_c
	.align	2
	.type	avg_qpel8_mc02_c, %function
avg_qpel8_mc02_c:
.LFB202:
	.loc 5 697 0 is_stmt 1
	.cfi_startproc
	@ args = 0, pretend = 0, frame = 184
	@ frame_needed = 0, uses_anonymous_args = 0
.LVL383:
.LBB334:
.LBB335:
	.loc 6 64 0
	add	r3, r1, r2
.LBE335:
.LBE334:
	.loc 5 697 0
	stmfd	sp!, {r4, r5, r6, r7, r8, r9, r10, fp, lr}
	.cfi_def_cfa_offset 36
	.cfi_offset 4, -36
	.cfi_offset 5, -32
	.cfi_offset 6, -28
	.cfi_offset 7, -24
	.cfi_offset 8, -20
	.cfi_offset 9, -16
	.cfi_offset 10, -12
	.cfi_offset 11, -8
	.cfi_offset 14, -4
.LBB340:
.LBB336:
	.loc 6 64 0
	add	r10, r3, r2
	.loc 6 61 0
	ldrb	r9, [r10, #5]	@ zero_extendqisi2
	ldrb	ip, [r10, #4]	@ zero_extendqisi2
	ldrb	r4, [r1, r2]	@ zero_extendqisi2
	ldrb	fp, [r3, #5]	@ zero_extendqisi2
	ldrb	r6, [r3, #1]	@ zero_extendqisi2
	ldrb	lr, [r3, #4]	@ zero_extendqisi2
	ldrb	r8, [r1]	@ zero_extendqisi2
	orr	ip, ip, r9, asl #8
	ldrb	r9, [r1, #1]	@ zero_extendqisi2
	orr	r6, r4, r6, asl #8
	orr	lr, lr, fp, asl #8
	ldrb	r4, [r1, #4]	@ zero_extendqisi2
	ldrb	fp, [r1, #5]	@ zero_extendqisi2
	orr	r8, r8, r9, asl #8
	ldrb	r9, [r10, #6]	@ zero_extendqisi2
	ldrb	r7, [r10, #1]	@ zero_extendqisi2
	ldrb	r5, [r1, r2, asl #1]	@ zero_extendqisi2
	orr	r4, r4, fp, asl #8
	orr	ip, ip, r9, asl #16
	ldrb	fp, [r3, #2]	@ zero_extendqisi2
	ldrb	r9, [r3, #6]	@ zero_extendqisi2
	orr	r5, r5, r7, asl #8
	ldrb	r7, [r10, #2]	@ zero_extendqisi2
	orr	r6, r6, fp, asl #16
	orr	lr, lr, r9, asl #16
	ldrb	fp, [r1, #2]	@ zero_extendqisi2
	ldrb	r9, [r1, #6]	@ zero_extendqisi2
	orr	r5, r5, r7, asl #16
	ldrb	r7, [r10, #3]	@ zero_extendqisi2
	orr	r4, r4, r9, asl #16
	orr	r8, r8, fp, asl #16
	ldrb	r9, [r3, #3]	@ zero_extendqisi2
	ldrb	fp, [r10, #7]	@ zero_extendqisi2
	orr	r7, r5, r7, asl #24
	ldrb	r5, [r3, #7]	@ zero_extendqisi2
	orr	ip, ip, fp, asl #24
	orr	r6, r6, r9, asl #24
	ldrb	fp, [r1, #3]	@ zero_extendqisi2
	ldrb	r9, [r1, #7]	@ zero_extendqisi2
	orr	lr, lr, r5, asl #24
	.loc 6 64 0
	add	r5, r10, r2
.LBE336:
.LBE340:
	.loc 5 697 0
	sub	sp, sp, #188
	.cfi_def_cfa_offset 224
.LVL384:
.LBB341:
.LBB337:
	.loc 6 61 0
	orr	r8, r8, fp, asl #24
	orr	r9, r4, r9, asl #24
	.loc 6 62 0
	ldrb	fp, [r1, #8]	@ zero_extendqisi2
	.loc 6 64 0
	add	r4, r5, r2
	.loc 6 62 0
	ldrb	r1, [r3, #8]	@ zero_extendqisi2
.LVL385:
	.loc 6 61 0
	str	r7, [sp, #72]
	str	r6, [sp, #56]
	str	lr, [sp, #60]
	str	r8, [sp, #40]
	str	r9, [sp, #44]
	.loc 6 62 0
	strb	fp, [sp, #48]
.LVL386:
	strb	r1, [sp, #64]
.LVL387:
	.loc 6 61 0
	ldrb	r1, [r3, r2, asl #1]	@ zero_extendqisi2
	ldrb	r8, [r4, #1]	@ zero_extendqisi2
	ldrb	r6, [r10, r2, asl #1]	@ zero_extendqisi2
	ldrb	r9, [r5, #1]	@ zero_extendqisi2
	ldrb	lr, [r4, #5]	@ zero_extendqisi2
	str	ip, [sp, #76]
	ldrb	ip, [r4, #4]	@ zero_extendqisi2
	ldrb	r7, [r5, #5]	@ zero_extendqisi2
	ldrb	fp, [r5, #2]	@ zero_extendqisi2
	ldrb	r3, [r5, #4]	@ zero_extendqisi2
	orr	r1, r1, r9, asl #8
	orr	r6, r6, r8, asl #8
	ldrb	r9, [r4, #2]	@ zero_extendqisi2
	ldrb	r8, [r4, #6]	@ zero_extendqisi2
	orr	lr, ip, lr, asl #8
	ldrb	ip, [r5, #6]	@ zero_extendqisi2
	orr	r1, r1, fp, asl #16
	orr	r3, r3, r7, asl #8
	ldrb	fp, [r4, #3]	@ zero_extendqisi2
	ldrb	r7, [r5, #3]	@ zero_extendqisi2
	orr	r6, r6, r9, asl #16
	orr	lr, lr, r8, asl #16
	ldrb	r9, [r4, #7]	@ zero_extendqisi2
	ldrb	r8, [r5, #7]	@ zero_extendqisi2
	orr	r3, r3, ip, asl #16
	orr	r7, r1, r7, asl #24
	.loc 6 64 0
	add	ip, r4, r2
	.loc 6 62 0
	ldrb	r10, [r10, #8]	@ zero_extendqisi2
.LVL388:
	.loc 6 61 0
	orr	r6, r6, fp, asl #24
	orr	lr, lr, r9, asl #24
	orr	fp, r3, r8, asl #24
	.loc 6 62 0
	ldrb	r9, [r4, #8]	@ zero_extendqisi2
	ldrb	r8, [r5, #8]	@ zero_extendqisi2
	.loc 6 64 0
	add	r1, ip, r2
	.loc 6 61 0
	str	r7, [sp, #88]
	.loc 6 62 0
	strb	r10, [sp, #80]
.LVL389:
	.loc 6 61 0
	ldrb	r7, [ip, #4]	@ zero_extendqisi2
	ldrb	r10, [ip, #3]	@ zero_extendqisi2
	str	r6, [sp, #104]
	str	lr, [sp, #108]
	ldrb	r6, [ip, #1]	@ zero_extendqisi2
	ldrb	lr, [ip, #2]	@ zero_extendqisi2
	str	fp, [sp, #92]
	.loc 6 62 0
	strb	r9, [sp, #112]
	.loc 6 61 0
	ldrb	fp, [ip, #5]	@ zero_extendqisi2
	.loc 6 62 0
	strb	r8, [sp, #96]
.LVL390:
	.loc 6 61 0
	ldrb	r8, [ip, #6]	@ zero_extendqisi2
	ldrb	r5, [r5, r2, asl #1]	@ zero_extendqisi2
	.loc 6 64 0
	add	r3, r1, r2
	.loc 6 61 0
	ldrb	r9, [ip, #7]	@ zero_extendqisi2
	ldrb	r4, [r4, r2, asl #1]	@ zero_extendqisi2
	str	r9, [sp]
	orr	r5, r5, r6, asl #8
.LBE337:
.LBE341:
	.loc 5 697 0
	mov	r9, r0
.LBB342:
.LBB338:
	.loc 6 61 0
	ldrb	r6, [r1, #1]	@ zero_extendqisi2
	orr	r0, r7, fp, asl #8
.LVL391:
	ldrb	fp, [r3, #1]	@ zero_extendqisi2
	ldrb	r7, [ip, r2, asl #1]	@ zero_extendqisi2
	orr	r6, r4, r6, asl #8
	orr	r7, r7, fp, asl #8
	ldrb	r4, [r3, #4]	@ zero_extendqisi2
	ldrb	fp, [r3, #5]	@ zero_extendqisi2
	orr	r0, r0, r8, asl #16
	orr	fp, r4, fp, asl #8
	ldrb	r8, [r1, #5]	@ zero_extendqisi2
	ldrb	r4, [r1, #4]	@ zero_extendqisi2
	orr	lr, r5, lr, asl #16
	orr	r8, r4, r8, asl #8
	ldrb	r5, [r3, #2]	@ zero_extendqisi2
	ldrb	r4, [r1, #2]	@ zero_extendqisi2
	orr	r7, r7, r5, asl #16
	orr	r6, r6, r4, asl #16
	ldrb	r5, [r3, #6]	@ zero_extendqisi2
	ldrb	r4, [r1, #6]	@ zero_extendqisi2
	orr	r5, fp, r5, asl #16
	orr	r4, r8, r4, asl #16
	ldrb	fp, [r3, #3]	@ zero_extendqisi2
	ldrb	r8, [r1, #3]	@ zero_extendqisi2
	orr	lr, lr, r10, asl #24
	orr	r7, r7, fp, asl #24
	ldr	r10, [sp]
	ldrb	fp, [r1, #7]	@ zero_extendqisi2
	orr	r6, r6, r8, asl #24
	add	r8, r9, r2
	str	r8, [sp, #4]
	orr	r0, r0, r10, asl #24
	orr	r4, r4, fp, asl #24
	ldrb	r10, [r3, #7]	@ zero_extendqisi2
	ldr	fp, [sp, #4]
	.loc 6 62 0
	ldrb	ip, [ip, #8]	@ zero_extendqisi2
.LVL392:
	.loc 6 61 0
	orr	r5, r5, r10, asl #24
	str	lr, [sp, #120]
	.loc 6 62 0
	ldrb	r10, [r3, #8]	@ zero_extendqisi2
	add	lr, fp, r2
	.loc 6 64 0
	add	r3, r3, r2
	.loc 6 62 0
	ldrb	r8, [r1, #8]	@ zero_extendqisi2
	str	lr, [sp, #12]
	.loc 6 61 0
	str	r0, [sp, #124]
	.loc 6 62 0
	strb	ip, [sp, #128]
.LVL393:
	.loc 6 61 0
	str	r7, [sp, #152]
	str	r6, [sp, #136]
	str	r5, [sp, #156]
	str	r4, [sp, #140]
	.loc 6 62 0
	strb	r10, [sp, #160]
	.loc 6 61 0
	ldrb	r0, [r3, #1]	@ zero_extendqisi2
	ldrb	ip, [r1, r2, asl #1]	@ zero_extendqisi2
	add	r1, lr, r2
.LVL394:
	mov	r7, r1
	ldrb	lr, [r3, #5]	@ zero_extendqisi2
	orr	ip, ip, r0, asl #8
	str	r1, [sp, #16]
	add	r0, r7, r2
	ldrb	r1, [r3, #4]	@ zero_extendqisi2
	ldrb	r6, [r3, #2]	@ zero_extendqisi2
	mov	r7, r0
	ldrb	r5, [r3, #6]	@ zero_extendqisi2
	str	r0, [sp, #20]
	orr	r0, r1, lr, asl #8
	add	r1, r7, r2
	orr	ip, ip, r6, asl #16
	.loc 6 62 0
	strb	r8, [sp, #144]
.LVL395:
	mov	r6, r1
	ldr	r8, .L144
	str	r1, [sp, #24]
	.loc 6 61 0
	orr	r1, r0, r5, asl #16
	add	r0, r6, r2
	ldrb	r4, [r3, #3]	@ zero_extendqisi2
	ldrb	lr, [r3, #7]	@ zero_extendqisi2
	mov	r5, r0
.LPIC25:
	ldr	r8, [pc, r8]		@ tls_load_dot_plus_eight
	add	r2, r5, r2
.LVL396:
	str	r0, [sp, #28]
	orr	r1, r1, lr, asl #24
	orr	r0, ip, r4, asl #24
	.loc 6 62 0
	ldrb	r3, [r3, #8]	@ zero_extendqisi2
.LVL397:
	str	r2, [sp, #32]
.LBE338:
.LBE342:
.LBB343:
.LBB344:
.LBB345:
	.loc 5 697 0 discriminator 3
	add	r8, r8, #1024
	add	r2, r9, #8
.LBE345:
.LBE344:
.LBE343:
.LBB351:
.LBB339:
	.loc 6 62 0
	add	r7, sp, #40
	str	fp, [sp, #8]
	str	r2, [sp, #36]
	.loc 6 61 0
	str	r0, [sp, #168]
	str	r1, [sp, #172]
	.loc 6 62 0
	strb	r3, [sp, #176]
.LVL398:
	str	r9, [sp]
.LVL399:
.L141:
.LBE339:
.LBE351:
.LBB352:
.LBB350:
.LBB346:
	.loc 5 697 0 discriminator 3
	ldrb	r0, [r7]	@ zero_extendqisi2
.LVL400:
	ldrb	r4, [r7, #32]	@ zero_extendqisi2
	ldrb	r1, [r7, #16]	@ zero_extendqisi2
.LVL401:
	ldrb	lr, [r7, #48]	@ zero_extendqisi2
.LVL402:
	add	r5, r0, r4
	add	ip, r0, r1
	sub	r5, r5, r5, asl #2
	ldrb	r3, [r7, #64]	@ zero_extendqisi2
.LVL403:
	add	r2, r1, lr
	mov	r5, r5, asl #1
	add	ip, ip, ip, asl #2
	add	ip, r5, ip, asl #2
	add	r2, r2, r2, asl #1
	add	ip, ip, r2
	add	r2, r4, r3
	ldr	r9, [sp]
	rsb	ip, r2, ip
	add	ip, ip, #16
	ldrb	fp, [r9]	@ zero_extendqisi2
	ldrb	ip, [r8, ip, asr #5]	@ zero_extendqisi2
	add	r5, r0, lr
	add	r2, r1, r4
	add	ip, fp, ip
	sub	r5, r5, r5, asl #2
	ldrb	r6, [r7, #80]	@ zero_extendqisi2
.LVL404:
	add	r10, r0, r3
	mov	r5, r5, asl #1
	add	r2, r2, r2, asl #2
	add	ip, ip, #1
	add	r2, r5, r2, asl #2
	mov	ip, ip, asr #1
	add	r10, r10, r10, asl #1
	strb	ip, [r9], #1
	add	r5, r1, r6
	ldr	ip, [sp, #4]
	add	r10, r2, r10
	rsb	r10, r5, r10
	ldrb	fp, [ip], #1	@ zero_extendqisi2
	add	r2, r1, r3
	add	r10, r10, #16
	sub	r5, r2, r2, asl #2
	str	ip, [sp, #4]
	add	r2, r4, lr
	ldrb	ip, [r8, r10, asr #5]	@ zero_extendqisi2
	mov	r5, r5, asl #1
	add	r2, r2, r2, asl #2
	add	r2, r5, r2, asl #2
	add	r10, r0, r6
	ldrb	r5, [r7, #96]	@ zero_extendqisi2
.LVL405:
	add	fp, fp, ip
	str	r9, [sp]
.LVL406:
	add	r10, r10, r10, asl #1
	ldr	r9, [sp, #8]
.LVL407:
	add	fp, fp, #1
	add	ip, r2, r10
	mov	fp, fp, asr #1
	add	r10, r0, r5
	strb	fp, [r9], #1
	rsb	ip, r10, ip
	str	r9, [sp, #8]
	ldr	r9, [sp, #12]
	add	r10, r4, r6
	add	ip, ip, #16
	ldrb	fp, [r9]	@ zero_extendqisi2
	ldrb	ip, [r8, ip, asr #5]	@ zero_extendqisi2
	add	r2, lr, r3
	sub	r10, r10, r10, asl #2
	add	r2, r2, r2, asl #2
	mov	r10, r10, asl #1
	add	r10, r10, r2, asl #2
	add	fp, fp, ip
	add	r2, r1, r5
	ldrb	ip, [r7, #112]	@ zero_extendqisi2
.LVL408:
	add	r2, r2, r2, asl #1
	add	fp, fp, #1
	add	r2, r10, r2
	add	r0, r0, ip
.LVL409:
	mov	fp, fp, asr #1
	strb	fp, [r9], #1
	rsb	r0, r0, r2
	str	r9, [sp, #12]
	ldr	r9, [sp, #16]
	add	r10, lr, r5
	add	r0, r0, #16
	ldrb	fp, [r9]	@ zero_extendqisi2
	ldrb	r0, [r8, r0, asr #5]	@ zero_extendqisi2
	add	r2, r3, r6
	sub	r10, r10, r10, asl #2
	add	r2, r2, r2, asl #2
	mov	r10, r10, asl #1
	add	r10, r10, r2, asl #2
	add	fp, fp, r0
	add	r2, r4, ip
	ldrb	r0, [r7, #128]	@ zero_extendqisi2
.LVL410:
	add	r2, r2, r2, asl #1
	add	fp, fp, #1
	add	r2, r10, r2
	add	r1, r1, r0
.LVL411:
	mov	fp, fp, asr #1
	strb	fp, [r9], #1
	rsb	r1, r1, r2
	str	r9, [sp, #16]
	ldr	r9, [sp, #20]
	add	r2, r3, ip
	add	r1, r1, #16
	ldrb	fp, [r9]	@ zero_extendqisi2
	sub	r2, r2, r2, asl #2
	ldrb	r1, [r8, r1, asr #5]	@ zero_extendqisi2
	add	r10, r6, r5
	add	r10, r10, r10, asl #2
	mov	r2, r2, asl #1
	add	r2, r2, r10, asl #2
	add	r1, fp, r1
	add	r10, lr, r0
	add	r10, r10, r10, asl #1
	add	r1, r1, #1
	add	r4, r4, r0
.LVL412:
	add	r2, r2, r10
	mov	r1, r1, asr #1
	strb	r1, [r9], #1
	rsb	r2, r4, r2
	add	r10, r6, r0
	str	r9, [sp, #20]
	ldr	r9, [sp, #24]
	add	r2, r2, #16
	add	r4, r5, ip
	sub	r10, r10, r10, asl #2
	ldrb	fp, [r8, r2, asr #5]	@ zero_extendqisi2
	ldrb	r1, [r9]	@ zero_extendqisi2
	add	r2, r3, r0
	mov	r10, r10, asl #1
	add	r4, r4, r4, asl #2
	add	r2, r2, r2, asl #1
	add	r4, r10, r4, asl #2
	add	lr, lr, ip
.LVL413:
	add	r1, r1, fp
	add	r4, r4, r2
	rsb	r4, lr, r4
	add	fp, r5, r0
	ldr	lr, [sp, #28]
	add	r1, r1, #1
	mov	r2, r9
	mov	r1, r1, asr #1
	add	r0, ip, r0
.LVL414:
	add	r4, r4, #16
	sub	fp, fp, fp, asl #2
	strb	r1, [r2], #1
	add	ip, r6, ip
.LVL415:
	ldrb	r1, [r8, r4, asr #5]	@ zero_extendqisi2
	str	r2, [sp, #24]
	add	r0, r0, r0, asl #2
	ldrb	r2, [lr]	@ zero_extendqisi2
	mov	fp, fp, asl #1
	add	r0, fp, r0, asl #2
	add	ip, ip, ip, asl #1
	add	ip, r0, ip
	add	r3, r3, r5
.LVL416:
	add	r2, r2, r1
	rsb	ip, r3, ip
	ldr	r1, [sp, #32]
	add	r2, r2, #1
	mov	r3, lr
	add	ip, ip, #16
	mov	r2, r2, asr #1
	strb	r2, [r3], #1
	ldrb	r2, [r8, ip, asr #5]	@ zero_extendqisi2
	str	r3, [sp, #28]
	ldrb	r3, [r1]	@ zero_extendqisi2
.LBE346:
	.loc 5 697 0 is_stmt 0 discriminator 1
	ldr	r0, [sp, #36]
.LBB347:
	.loc 5 697 0 discriminator 3
	add	r3, r3, r2
.LBE347:
	.loc 5 697 0 discriminator 1
	ldr	ip, [sp]
.LBB348:
	.loc 5 697 0 discriminator 3
	add	r3, r3, #1
	mov	r2, r1
	mov	r3, r3, asr #1
.LBE348:
	.loc 5 697 0 discriminator 1
	cmp	ip, r0
.LBB349:
	.loc 5 697 0 discriminator 3
	strb	r3, [r2], #1
	add	r7, r7, #1
.LVL417:
	str	r2, [sp, #32]
.LVL418:
.LBE349:
	.loc 5 697 0 discriminator 1
	bne	.L141
.LBE350:
.LBE352:
	.loc 5 697 0
	add	sp, sp, #188
	.cfi_def_cfa_offset 36
.LVL419:
	@ sp needed
	ldmfd	sp!, {r4, r5, r6, r7, r8, r9, r10, fp, pc}
.LVL420:
.L145:
	.align	2
.L144:
	.word	ff_crop_tab(GOT_PREL)+(.-(.LPIC25+8))
	.cfi_endproc
.LFE202:
	.size	avg_qpel8_mc02_c, .-avg_qpel8_mc02_c
	.align	2
	.global	ff_put_pixels8x8_c
	.type	ff_put_pixels8x8_c, %function
ff_put_pixels8x8_c:
.LFB240:
	.loc 5 704 0 is_stmt 1
	.cfi_startproc
	@ args = 0, pretend = 0, frame = 0
	@ frame_needed = 0, uses_anonymous_args = 0
.LVL421:
	stmfd	sp!, {r4, r5, lr}
	.cfi_def_cfa_offset 12
	.cfi_offset 4, -12
	.cfi_offset 5, -8
	.cfi_offset 14, -4
.LBB353:
.LBB354:
	.loc 3 78 0 discriminator 3
	ldrb	r3, [r1, #1]	@ zero_extendqisi2
	ldrb	ip, [r1]	@ zero_extendqisi2
	ldrb	r4, [r1, #2]	@ zero_extendqisi2
	ldrb	lr, [r1, #3]	@ zero_extendqisi2
	orr	ip, ip, r3, asl #8
	orr	r3, ip, r4, asl #16
	orr	r3, r3, lr, asl #24
	str	r3, [r0]
	ldrb	ip, [r1, #4]	@ zero_extendqisi2
	ldrb	r3, [r1, #5]	@ zero_extendqisi2
	ldrb	lr, [r1, #6]	@ zero_extendqisi2
	orr	r3, ip, r3, asl #8
	ldrb	ip, [r1, #7]	@ zero_extendqisi2
.LVL422:
	orr	r3, r3, lr, asl #16
	orr	r3, r3, ip, asl #24
	add	lr, r1, r2
.LVL423:
	str	r3, [r0, #4]
	ldrb	ip, [r1, r2]	@ zero_extendqisi2
	ldrb	r4, [lr, #1]	@ zero_extendqisi2
	ldrb	r3, [lr, #2]	@ zero_extendqisi2
	orr	ip, ip, r4, asl #8
	ldrb	r4, [lr, #3]	@ zero_extendqisi2
	orr	r3, ip, r3, asl #16
	orr	r3, r3, r4, asl #24
	str	r3, [r0, r2]
	ldrb	r4, [lr, #5]	@ zero_extendqisi2
	ldrb	ip, [lr, #4]	@ zero_extendqisi2
	ldrb	r3, [lr, #6]	@ zero_extendqisi2
	orr	ip, ip, r4, asl #8
	ldrb	r4, [lr, #7]	@ zero_extendqisi2
	orr	r3, ip, r3, asl #16
	add	r5, r0, r2
.LVL424:
	add	ip, lr, r2
.LVL425:
	orr	r3, r3, r4, asl #24
	str	r3, [r5, #4]
	ldrb	r4, [ip, #1]	@ zero_extendqisi2
	ldrb	r1, [r1, r2, asl #1]	@ zero_extendqisi2
.LVL426:
	ldrb	r3, [ip, #2]	@ zero_extendqisi2
	orr	r1, r1, r4, asl #8
	ldrb	r4, [ip, #3]	@ zero_extendqisi2
	orr	r3, r1, r3, asl #16
	orr	r3, r3, r4, asl #24
	str	r3, [r0, r2, asl #1]
	ldrb	r0, [ip, #4]	@ zero_extendqisi2
.LVL427:
	ldrb	r3, [ip, #5]	@ zero_extendqisi2
	ldrb	r1, [ip, #6]	@ zero_extendqisi2
	orr	r3, r0, r3, asl #8
	ldrb	r0, [ip, #7]	@ zero_extendqisi2
	orr	r3, r3, r1, asl #16
	add	r4, r5, r2
.LVL428:
	orr	r1, r3, r0, asl #24
	add	r3, ip, r2
.LVL429:
	str	r1, [r4, #4]
	ldrb	r0, [lr, r2, asl #1]	@ zero_extendqisi2
	ldrb	lr, [r3, #1]	@ zero_extendqisi2
	ldrb	r1, [r3, #2]	@ zero_extendqisi2
	orr	r0, r0, lr, asl #8
	ldrb	lr, [r3, #3]	@ zero_extendqisi2
	orr	r1, r0, r1, asl #16
	orr	r1, r1, lr, asl #24
	str	r1, [r5, r2, asl #1]
	ldrb	lr, [r3, #4]	@ zero_extendqisi2
	ldrb	r1, [r3, #5]	@ zero_extendqisi2
	ldrb	r0, [r3, #6]	@ zero_extendqisi2
	orr	r1, lr, r1, asl #8
	ldrb	lr, [r3, #7]	@ zero_extendqisi2
	orr	r1, r1, r0, asl #16
	orr	r0, r1, lr, asl #24
	add	r1, r3, r2
	add	lr, r4, r2
.LVL430:
	str	r0, [lr, #4]
	ldrb	r5, [r1, #1]	@ zero_extendqisi2
	ldrb	ip, [ip, r2, asl #1]	@ zero_extendqisi2
	ldrb	r0, [r1, #2]	@ zero_extendqisi2
	orr	ip, ip, r5, asl #8
	ldrb	r5, [r1, #3]	@ zero_extendqisi2
	orr	r0, ip, r0, asl #16
	orr	r0, r0, r5, asl #24
	str	r0, [r4, r2, asl #1]
	ldrb	r4, [r1, #5]	@ zero_extendqisi2
	ldrb	ip, [r1, #4]	@ zero_extendqisi2
	ldrb	r0, [r1, #6]	@ zero_extendqisi2
	orr	ip, ip, r4, asl #8
	ldrb	r4, [r1, #7]	@ zero_extendqisi2
	orr	r0, ip, r0, asl #16
	orr	r0, r0, r4, asl #24
	add	ip, r1, r2
	add	r4, lr, r2
.LVL431:
	str	r0, [r4, #4]
	ldrb	r0, [r3, r2, asl #1]	@ zero_extendqisi2
	ldrb	r5, [ip, #1]	@ zero_extendqisi2
	ldrb	r3, [ip, #2]	@ zero_extendqisi2
	orr	r0, r0, r5, asl #8
	ldrb	r5, [ip, #3]	@ zero_extendqisi2
	orr	r3, r0, r3, asl #16
	orr	r3, r3, r5, asl #24
	str	r3, [lr, r2, asl #1]
	ldrb	lr, [ip, #4]	@ zero_extendqisi2
	ldrb	r3, [ip, #5]	@ zero_extendqisi2
	ldrb	r0, [ip, #6]	@ zero_extendqisi2
	orr	r3, lr, r3, asl #8
	ldrb	lr, [ip, #7]	@ zero_extendqisi2
	orr	r3, r3, r0, asl #16
	orr	r0, r3, lr, asl #24
	add	r3, ip, r2
	add	lr, r4, r2
.LVL432:
	str	r0, [lr, #4]
	ldrb	r0, [r1, r2, asl #1]	@ zero_extendqisi2
	ldrb	r5, [r3, #1]	@ zero_extendqisi2
	ldrb	r1, [r3, #2]	@ zero_extendqisi2
	orr	r0, r0, r5, asl #8
	ldrb	r5, [r3, #3]	@ zero_extendqisi2
	orr	r1, r0, r1, asl #16
	orr	r1, r1, r5, asl #24
	str	r1, [r4, r2, asl #1]
	ldrb	r0, [r3, #4]	@ zero_extendqisi2
	ldrb	r4, [r3, #5]	@ zero_extendqisi2
	ldrb	r1, [r3, #6]	@ zero_extendqisi2
	orr	r0, r0, r4, asl #8
	ldrb	r4, [r3, #7]	@ zero_extendqisi2
	orr	r1, r0, r1, asl #16
	orr	r1, r1, r4, asl #24
	add	r0, r3, r2
	add	r4, lr, r2
.LVL433:
	str	r1, [r4, #4]
	ldrb	r1, [ip, r2, asl #1]	@ zero_extendqisi2
	ldrb	ip, [r0, #1]	@ zero_extendqisi2
	ldrb	r3, [r0, #2]	@ zero_extendqisi2
	orr	r1, r1, ip, asl #8
	ldrb	ip, [r0, #3]	@ zero_extendqisi2
	orr	r3, r1, r3, asl #16
	orr	r3, r3, ip, asl #24
	str	r3, [lr, r2, asl #1]
	ldrb	r1, [r0, #4]	@ zero_extendqisi2
	ldrb	ip, [r0, #5]	@ zero_extendqisi2
	ldrb	r3, [r0, #6]	@ zero_extendqisi2
	orr	r1, r1, ip, asl #8
	ldrb	r0, [r0, #7]	@ zero_extendqisi2
.LVL434:
	orr	r3, r1, r3, asl #16
	add	r2, r4, r2
.LVL435:
	orr	r3, r3, r0, asl #24
	str	r3, [r2, #4]
.LVL436:
	ldmfd	sp!, {r4, r5, pc}
.LBE354:
.LBE353:
	.cfi_endproc
.LFE240:
	.size	ff_put_pixels8x8_c, .-ff_put_pixels8x8_c
	.align	2
	.type	avg_qpel16_mc02_c, %function
avg_qpel16_mc02_c:
.LFB223:
	.loc 5 697 0
	.cfi_startproc
	@ args = 0, pretend = 0, frame = 504
	@ frame_needed = 0, uses_anonymous_args = 0
.LVL437:
	stmfd	sp!, {r4, r5, r6, r7, r8, r9, r10, fp, lr}
	.cfi_def_cfa_offset 36
	.cfi_offset 4, -36
	.cfi_offset 5, -32
	.cfi_offset 6, -28
	.cfi_offset 7, -24
	.cfi_offset 8, -20
	.cfi_offset 9, -16
	.cfi_offset 10, -12
	.cfi_offset 11, -8
	.cfi_offset 14, -4
	sub	sp, sp, #508
	.cfi_def_cfa_offset 544
.LVL438:
.LBB360:
.LBB361:
	.loc 6 85 0
	add	ip, r1, r2
	.loc 6 82 0
	ldrb	r6, [r1, r2]	@ zero_extendqisi2
	str	r2, [sp]
	ldrb	r2, [r1, #12]	@ zero_extendqisi2
.LVL439:
	str	r2, [sp, #20]
	ldrb	r2, [ip, #2]	@ zero_extendqisi2
	str	r2, [sp, #28]
	ldrb	r2, [r1, #2]	@ zero_extendqisi2
	str	r2, [sp, #4]
	ldrb	r2, [r1, #6]	@ zero_extendqisi2
	str	r2, [sp, #12]
	ldrb	r2, [r1, #10]	@ zero_extendqisi2
	ldrb	fp, [ip, #1]	@ zero_extendqisi2
	ldrb	r8, [r1, #9]	@ zero_extendqisi2
	ldrb	lr, [r1, #8]	@ zero_extendqisi2
	str	r2, [sp, #16]
	ldrb	r2, [r1, #14]	@ zero_extendqisi2
	ldrb	r10, [r1, #1]	@ zero_extendqisi2
	ldrb	r9, [r1, #5]	@ zero_extendqisi2
	ldrb	r3, [ip, #4]	@ zero_extendqisi2
	ldrb	r5, [r1]	@ zero_extendqisi2
	ldrb	r4, [r1, #4]	@ zero_extendqisi2
	ldrb	r7, [r1, #13]	@ zero_extendqisi2
	str	r2, [sp, #24]
	ldr	r2, [sp, #20]
	str	r3, [sp, #32]
	orr	r6, r6, fp, asl #8
	orr	lr, lr, r8, asl #8
	ldrb	fp, [ip, #6]	@ zero_extendqisi2
	ldrb	r8, [r1, #3]	@ zero_extendqisi2
	ldrb	r3, [ip, #5]	@ zero_extendqisi2
	str	fp, [sp, #36]
	orr	r5, r5, r10, asl #8
	ldrb	fp, [ip, #3]	@ zero_extendqisi2
	ldrb	r10, [r1, #7]	@ zero_extendqisi2
	orr	r4, r4, r9, asl #8
	str	r8, [sp, #8]
	orr	r2, r2, r7, asl #8
	ldr	r7, [sp, #32]
	ldr	r9, [sp, #4]
	orr	r3, r7, r3, asl #8
	orr	r5, r5, r9, asl #16
	ldrb	r7, [r1, #11]	@ zero_extendqisi2
	ldr	r9, [sp, #12]
	str	r7, [sp, #20]
	ldr	r7, [sp, #28]
	orr	r4, r4, r9, asl #16
	ldr	r9, [sp, #16]
	orr	r6, r6, r7, asl #16
	orr	r6, r6, fp, asl #24
	orr	lr, lr, r9, asl #16
	ldr	fp, [sp, #8]
	ldr	r9, [sp, #24]
	ldrb	r8, [r1, #15]	@ zero_extendqisi2
	orr	r2, r2, r9, asl #16
	orr	r5, r5, fp, asl #24
	ldr	r9, [sp, #36]
	.loc 6 85 0
	ldr	fp, [sp]
	.loc 6 82 0
	orr	r4, r4, r10, asl #24
	ldr	r10, [sp, #20]
	ldrb	r7, [ip, #7]	@ zero_extendqisi2
	orr	r3, r3, r9, asl #16
	orr	lr, lr, r10, asl #24
	add	r9, sp, #104
	orr	r8, r2, r8, asl #24
	.loc 6 85 0
	add	r2, ip, fp
	.loc 6 82 0
	stmda	r9, {r4, lr}
	orr	r3, r3, r7, asl #24
	ldrb	lr, [r2, #4]	@ zero_extendqisi2
	.loc 6 83 0
	ldrb	r7, [r1, #16]	@ zero_extendqisi2
	.loc 6 82 0
	str	r5, [r9, #-8]
	ldrb	r5, [r1, fp, asl #1]	@ zero_extendqisi2
	ldrb	r1, [r2, #1]	@ zero_extendqisi2
.LVL440:
	str	r8, [r9, #4]
	ldrb	r10, [ip, #9]	@ zero_extendqisi2
	ldrb	r8, [ip, #13]	@ zero_extendqisi2
	str	r6, [r9, #16]
	str	r3, [r9, #20]
	ldrb	r6, [ip, #8]	@ zero_extendqisi2
	ldrb	r3, [r2, #8]	@ zero_extendqisi2
	ldrb	r4, [ip, #12]	@ zero_extendqisi2
	.loc 6 83 0
	strb	r7, [sp, #112]
.LVL441:
	.loc 6 82 0
	str	lr, [sp, #20]
	ldrb	r7, [r2, #5]	@ zero_extendqisi2
	str	r1, [sp, #12]
	ldrb	r1, [r2, #9]	@ zero_extendqisi2
	ldrb	lr, [ip, #10]	@ zero_extendqisi2
	str	lr, [sp, #4]
	ldrb	lr, [r2, #2]	@ zero_extendqisi2
	str	lr, [sp, #16]
	ldrb	lr, [ip, #14]	@ zero_extendqisi2
	str	lr, [sp, #8]
	ldrb	lr, [r2, #6]	@ zero_extendqisi2
	str	lr, [sp, #24]
	orr	r6, r6, r10, asl #8
	ldr	lr, [sp, #20]
	ldrb	r10, [r2, #10]	@ zero_extendqisi2
	str	r10, [sp, #28]
	orr	r1, r3, r1, asl #8
	ldr	r10, [sp, #12]
	ldrb	r3, [ip, #15]	@ zero_extendqisi2
	orr	lr, lr, r7, asl #8
	str	r3, [sp, #12]
	ldrb	r7, [ip, #11]	@ zero_extendqisi2
	ldr	r3, [sp, #8]
	ldrb	fp, [r2, #12]	@ zero_extendqisi2
	orr	r5, r5, r10, asl #8
	orr	r4, r4, r8, asl #8
	ldrb	r10, [r2, #14]	@ zero_extendqisi2
	ldr	r8, [sp, #4]
	str	fp, [sp, #32]
	str	r10, [sp, #36]
	orr	r4, r4, r3, asl #16
	mov	r10, r7
	ldr	r3, [sp, #24]
	ldrb	r7, [r2, #3]	@ zero_extendqisi2
	ldrb	fp, [r2, #13]	@ zero_extendqisi2
	str	r7, [sp, #20]
	orr	r6, r6, r8, asl #16
	ldr	r7, [sp, #32]
	ldrb	r8, [r2, #11]	@ zero_extendqisi2
	str	r8, [sp, #4]
	orr	lr, lr, r3, asl #16
	ldr	r8, [sp, #16]
	ldr	r3, [sp, #28]
	orr	r7, r7, fp, asl #8
	ldrb	fp, [r2, #7]	@ zero_extendqisi2
	orr	r6, r6, r10, asl #24
	orr	r5, r5, r8, asl #16
	orr	r1, r1, r3, asl #16
	ldrb	r8, [r2, #15]	@ zero_extendqisi2
	ldr	r3, [sp, #36]
	ldr	r10, [sp, #20]
	orr	lr, lr, fp, asl #24
	ldr	fp, [sp, #4]
	orr	r5, r5, r10, asl #24
	ldr	r10, [sp, #12]
	orr	r1, r1, fp, asl #24
	orr	r7, r7, r3, asl #16
	.loc 6 85 0
	ldr	r3, [sp]
	.loc 6 82 0
	orr	r4, r4, r10, asl #24
	str	r1, [r9, #48]
	.loc 6 85 0
	ldr	r10, [sp]
	.loc 6 82 0
	ldr	r1, [sp]
	.loc 6 85 0
	add	r3, r2, r3
	add	r10, r3, r10
	.loc 6 83 0
	ldrb	fp, [r2, #16]	@ zero_extendqisi2
	.loc 6 82 0
	str	lr, [r9, #44]
	ldrb	lr, [r2, r1, asl #1]	@ zero_extendqisi2
	ldrb	r2, [r3, #12]	@ zero_extendqisi2
	str	r2, [sp, #16]
	ldrb	r2, [r10, #4]	@ zero_extendqisi2
	str	r2, [sp, #32]
	ldrb	r2, [r10, #5]	@ zero_extendqisi2
	orr	r7, r7, r8, asl #24
	str	r2, [sp, #36]
	.loc 6 83 0
	ldrb	r8, [ip, #16]	@ zero_extendqisi2
	.loc 6 82 0
	ldrb	r2, [r3, #2]	@ zero_extendqisi2
	str	r4, [r9, #28]
	str	r7, [r9, #52]
	ldrb	r4, [ip, r1, asl #1]	@ zero_extendqisi2
	ldrb	r7, [r3, #5]	@ zero_extendqisi2
	str	r6, [r9, #24]
	str	r5, [r9, #40]
	ldrb	r6, [r3, #9]	@ zero_extendqisi2
	ldrb	r5, [r3, #13]	@ zero_extendqisi2
	ldrb	ip, [r3, #4]	@ zero_extendqisi2
.LVL442:
	ldrb	r1, [r3, #8]	@ zero_extendqisi2
	.loc 6 83 0
	strb	fp, [sp, #160]
	strb	r8, [sp, #136]
.LVL443:
	.loc 6 82 0
	ldrb	fp, [r3, #1]	@ zero_extendqisi2
	ldrb	r8, [r10, #1]	@ zero_extendqisi2
	str	r2, [sp, #4]
	ldrb	r2, [r10, #2]	@ zero_extendqisi2
	str	r2, [sp, #28]
	ldrb	r2, [r3, #6]	@ zero_extendqisi2
	str	r2, [sp, #12]
	ldrb	r2, [r3, #10]	@ zero_extendqisi2
	str	r2, [sp, #20]
	ldr	r2, [sp, #16]
	orr	r1, r1, r6, asl #8
	orr	r2, r2, r5, asl #8
	ldr	r6, [sp, #36]
	ldr	r5, [sp, #32]
	orr	r4, r4, fp, asl #8
	orr	r5, r5, r6, asl #8
	ldr	r6, [sp, #4]
	orr	lr, lr, r8, asl #8
	orr	r4, r4, r6, asl #16
	ldr	r6, [sp, #28]
	orr	ip, ip, r7, asl #8
	orr	lr, lr, r6, asl #16
	str	lr, [sp, #4]
	ldr	lr, [sp, #12]
	ldrb	fp, [r3, #14]	@ zero_extendqisi2
	orr	ip, ip, lr, asl #16
	ldr	lr, [sp, #20]
	str	fp, [sp, #24]
	ldrb	r8, [r10, #6]	@ zero_extendqisi2
	orr	r1, r1, lr, asl #16
	ldr	lr, [sp, #24]
	str	r8, [sp, #40]
	ldrb	r7, [r3, #3]	@ zero_extendqisi2
	orr	r2, r2, lr, asl #16
	ldr	lr, [sp, #40]
	str	r7, [sp, #8]
	orr	r5, r5, lr, asl #16
	ldr	lr, [sp, #8]
	ldrb	fp, [r10, #3]	@ zero_extendqisi2
	ldrb	r7, [r3, #7]	@ zero_extendqisi2
	ldrb	r8, [r3, #11]	@ zero_extendqisi2
	orr	r4, r4, lr, asl #24
	ldr	lr, [sp, #4]
	str	r7, [sp, #16]
	orr	lr, lr, fp, asl #24
	ldrb	r7, [r3, #15]	@ zero_extendqisi2
	ldr	fp, [sp, #16]
	orr	r1, r1, r8, asl #24
	.loc 6 85 0
	ldr	r8, [sp]
	.loc 6 82 0
	ldrb	r6, [r10, #7]	@ zero_extendqisi2
	orr	ip, ip, fp, asl #24
	orr	r2, r2, r7, asl #24
	.loc 6 85 0
	add	fp, r10, r8
	.loc 6 82 0
	orr	r5, r5, r6, asl #24
	.loc 6 83 0
	ldrb	r6, [r3, #16]	@ zero_extendqisi2
	.loc 6 82 0
	str	r4, [r9, #64]
	str	r2, [r9, #76]
	ldrb	r2, [fp, #9]	@ zero_extendqisi2
	str	r2, [sp, #24]
	ldrb	r2, [fp, #13]	@ zero_extendqisi2
	str	r2, [sp, #32]
	ldrb	r2, [r10, #10]	@ zero_extendqisi2
	ldrb	r7, [r10, #9]	@ zero_extendqisi2
	str	lr, [r9, #88]
	ldrb	r4, [r10, #8]	@ zero_extendqisi2
	ldrb	lr, [r3, r8, asl #1]	@ zero_extendqisi2
	.loc 6 83 0
	strb	r6, [sp, #184]
.LVL444:
	.loc 6 82 0
	str	r2, [sp, #4]
	ldrb	r6, [fp, #1]	@ zero_extendqisi2
	ldrb	r2, [fp, #2]	@ zero_extendqisi2
	ldrb	r3, [fp, #4]	@ zero_extendqisi2
	str	ip, [r9, #68]
	str	r5, [r9, #92]
	ldrb	ip, [r10, #12]	@ zero_extendqisi2
	ldrb	r5, [r10, #13]	@ zero_extendqisi2
	str	r2, [sp, #12]
	ldrb	r2, [r10, #14]	@ zero_extendqisi2
	str	r3, [sp, #16]
	str	r2, [sp, #8]
	orr	r4, r4, r7, asl #8
	ldrb	r2, [fp, #6]	@ zero_extendqisi2
	ldrb	r7, [fp, #10]	@ zero_extendqisi2
	orr	lr, lr, r6, asl #8
	ldrb	r6, [fp, #14]	@ zero_extendqisi2
	ldrb	r8, [fp, #8]	@ zero_extendqisi2
	ldrb	r3, [fp, #12]	@ zero_extendqisi2
	str	r1, [r9, #72]
	str	r2, [sp, #20]
	ldrb	r1, [fp, #5]	@ zero_extendqisi2
	str	r7, [sp, #28]
	str	r6, [sp, #36]
	orr	ip, ip, r5, asl #8
	ldr	r5, [sp, #16]
	ldr	r2, [sp, #24]
	orr	r1, r5, r1, asl #8
	ldrb	r5, [r10, #11]	@ zero_extendqisi2
	ldrb	r7, [fp, #7]	@ zero_extendqisi2
	mov	r6, r5
	ldrb	r5, [fp, #3]	@ zero_extendqisi2
	str	r5, [sp, #16]
	ldr	r5, [sp, #32]
	str	r7, [sp, #24]
	orr	r5, r3, r5, asl #8
	ldr	r3, [sp, #4]
	orr	r2, r8, r2, asl #8
	orr	r4, r4, r3, asl #16
	ldr	r3, [sp, #12]
	orr	r4, r4, r6, asl #24
	orr	lr, lr, r3, asl #16
	ldrb	r3, [fp, #15]	@ zero_extendqisi2
	str	r3, [sp, #4]
	ldr	r3, [sp, #8]
	ldr	r6, [sp, #16]
	orr	ip, ip, r3, asl #16
	ldr	r3, [sp, #20]
	orr	lr, lr, r6, asl #24
	orr	r1, r1, r3, asl #16
	ldr	r3, [sp, #28]
	ldr	r6, [sp, #24]
	orr	r2, r2, r3, asl #16
	ldr	r3, [sp, #36]
	ldrb	r8, [r10, #15]	@ zero_extendqisi2
	ldrb	r7, [fp, #11]	@ zero_extendqisi2
	orr	r1, r1, r6, asl #24
	orr	r5, r5, r3, asl #16
	ldr	r6, [sp, #4]
	.loc 6 85 0
	ldr	r3, [sp]
	.loc 6 82 0
	orr	ip, ip, r8, asl #24
	.loc 6 85 0
	ldr	r8, [sp]
	add	r3, fp, r3
	.loc 6 82 0
	orr	r2, r2, r7, asl #24
	orr	r5, r5, r6, asl #24
	.loc 6 83 0
	ldrb	r7, [fp, #16]	@ zero_extendqisi2
	ldrb	r6, [r10, #16]	@ zero_extendqisi2
	.loc 6 85 0
	add	r8, r3, r8
	.loc 6 82 0
	str	ip, [r9, #100]
	str	r5, [r9, #124]
	str	r4, [r9, #96]
	str	lr, [r9, #112]
	str	r1, [r9, #116]
	str	r2, [r9, #120]
	.loc 6 83 0
	strb	r7, [sp, #232]
	strb	r6, [sp, #208]
.LVL445:
	.loc 6 82 0
	ldr	r2, [sp]
	ldrb	r1, [r3, #8]	@ zero_extendqisi2
	str	r1, [sp, #8]
	ldrb	r1, [r8, #4]	@ zero_extendqisi2
	str	r1, [sp, #20]
	ldrb	r1, [r8, #5]	@ zero_extendqisi2
	str	r1, [sp, #32]
	ldrb	r1, [r3, #2]	@ zero_extendqisi2
	str	r1, [sp, #4]
	ldrb	r1, [r8, #2]	@ zero_extendqisi2
	str	r1, [sp, #28]
	ldrb	r1, [r3, #6]	@ zero_extendqisi2
	ldrb	r4, [r10, r2, asl #1]	@ zero_extendqisi2
	ldrb	lr, [fp, r2, asl #1]	@ zero_extendqisi2
	ldrb	r10, [r3, #1]	@ zero_extendqisi2
	ldrb	fp, [r8, #1]	@ zero_extendqisi2
	ldrb	r7, [r3, #5]	@ zero_extendqisi2
	ldrb	ip, [r3, #4]	@ zero_extendqisi2
	str	r1, [sp, #12]
	ldrb	r1, [r3, #10]	@ zero_extendqisi2
	ldrb	r5, [r3, #13]	@ zero_extendqisi2
	ldrb	r6, [r3, #9]	@ zero_extendqisi2
	ldrb	r2, [r3, #12]	@ zero_extendqisi2
	str	r1, [sp, #16]
	ldr	r1, [sp, #8]
	orr	r4, r4, r10, asl #8
	orr	lr, lr, fp, asl #8
	ldrb	r10, [r3, #14]	@ zero_extendqisi2
	ldrb	fp, [r8, #6]	@ zero_extendqisi2
	orr	ip, ip, r7, asl #8
	ldrb	r7, [r3, #3]	@ zero_extendqisi2
	str	r10, [sp, #24]
	str	fp, [sp, #36]
	orr	r1, r1, r6, asl #8
	ldrb	fp, [r8, #3]	@ zero_extendqisi2
	str	r7, [sp, #8]
	orr	r2, r2, r5, asl #8
	ldr	r5, [sp, #20]
	ldr	r6, [sp, #32]
	ldrb	r10, [r3, #7]	@ zero_extendqisi2
	orr	r5, r5, r6, asl #8
	ldr	r6, [sp, #4]
	ldrb	r7, [r3, #11]	@ zero_extendqisi2
	orr	r4, r4, r6, asl #16
	ldr	r6, [sp, #28]
	str	r7, [sp, #20]
	orr	lr, lr, r6, asl #16
	str	lr, [sp, #4]
	ldr	lr, [sp, #12]
	ldrb	r7, [r3, #15]	@ zero_extendqisi2
	orr	ip, ip, lr, asl #16
	ldr	lr, [sp, #16]
	orr	ip, ip, r10, asl #24
	orr	r1, r1, lr, asl #16
	ldr	lr, [sp, #24]
	.loc 6 85 0
	ldr	r10, [sp]
	.loc 6 82 0
	orr	r2, r2, lr, asl #16
	ldr	lr, [sp, #36]
	ldrb	r6, [r8, #7]	@ zero_extendqisi2
	orr	r5, r5, lr, asl #16
	ldr	lr, [sp, #8]
	orr	r2, r2, r7, asl #24
	orr	r4, r4, lr, asl #24
	ldr	lr, [sp, #4]
	orr	r5, r5, r6, asl #24
	orr	lr, lr, fp, asl #24
	ldr	fp, [sp, #20]
	.loc 6 83 0
	ldrb	r6, [r3, #16]	@ zero_extendqisi2
	.loc 6 82 0
	orr	r1, r1, fp, asl #24
	.loc 6 85 0
	add	fp, r8, r10
	.loc 6 82 0
	str	r1, [r9, #144]
	ldrb	r1, [fp, #5]	@ zero_extendqisi2
	str	r2, [r9, #148]
	ldrb	r7, [r8, #9]	@ zero_extendqisi2
	str	r4, [r9, #136]
	str	lr, [r9, #160]
	str	ip, [r9, #140]
	ldrb	lr, [r3, r10, asl #1]	@ zero_extendqisi2
	str	r5, [r9, #164]
	ldrb	r3, [fp, #4]	@ zero_extendqisi2
.LVL446:
	ldrb	r5, [r8, #13]	@ zero_extendqisi2
	ldrb	r4, [r8, #8]	@ zero_extendqisi2
	ldrb	ip, [r8, #12]	@ zero_extendqisi2
	.loc 6 83 0
	strb	r6, [sp, #256]
.LVL447:
	.loc 6 82 0
	ldrb	r6, [fp, #1]	@ zero_extendqisi2
	str	r1, [sp, #12]
	ldrb	r1, [r8, #10]	@ zero_extendqisi2
	str	r1, [sp, #4]
	ldrb	r1, [fp, #2]	@ zero_extendqisi2
	str	r1, [sp, #16]
	ldrb	r1, [r8, #14]	@ zero_extendqisi2
	str	r1, [sp, #8]
	ldrb	r1, [fp, #6]	@ zero_extendqisi2
	ldrb	r10, [fp, #8]	@ zero_extendqisi2
	str	r1, [sp, #24]
	ldr	r1, [sp, #12]
	str	r10, [sp, #20]
	ldrb	r2, [fp, #9]	@ zero_extendqisi2
	ldrb	r10, [fp, #12]	@ zero_extendqisi2
	orr	r1, r3, r1, asl #8
	ldr	r3, [sp, #20]
	str	r10, [sp, #32]
	orr	ip, ip, r5, asl #8
	ldrb	r5, [r8, #11]	@ zero_extendqisi2
	ldrb	r10, [fp, #13]	@ zero_extendqisi2
	orr	lr, lr, r6, asl #8
	orr	r2, r3, r2, asl #8
	ldrb	r6, [fp, #14]	@ zero_extendqisi2
	ldr	r3, [sp, #32]
	str	r6, [sp, #36]
	mov	r6, r5
	ldrb	r5, [fp, #3]	@ zero_extendqisi2
	str	r5, [sp, #20]
	orr	r5, r3, r10, asl #8
	ldr	r3, [sp, #4]
	orr	r4, r4, r7, asl #8
	orr	r4, r4, r3, asl #16
	ldr	r3, [sp, #16]
	ldrb	r7, [fp, #10]	@ zero_extendqisi2
	orr	lr, lr, r3, asl #16
	ldrb	r3, [fp, #15]	@ zero_extendqisi2
	str	r3, [sp, #4]
	ldr	r3, [sp, #8]
	str	r7, [sp, #28]
	ldrb	r7, [r8, #15]	@ zero_extendqisi2
	ldrb	r10, [fp, #7]	@ zero_extendqisi2
	str	r7, [sp, #12]
	orr	ip, ip, r3, asl #16
	ldrb	r7, [fp, #11]	@ zero_extendqisi2
	ldr	r3, [sp, #24]
	orr	r4, r4, r6, asl #24
	orr	r1, r1, r3, asl #16
	ldr	r6, [sp, #20]
	ldr	r3, [sp, #28]
	orr	lr, lr, r6, asl #24
	orr	r2, r2, r3, asl #16
	ldr	r6, [sp, #12]
	ldr	r3, [sp, #36]
	orr	ip, ip, r6, asl #24
	orr	r5, r5, r3, asl #16
	.loc 6 85 0
	ldr	r3, [sp]
	.loc 6 82 0
	str	ip, [r9, #172]
	orr	r1, r1, r10, asl #24
	ldr	ip, [sp, #4]
	.loc 6 85 0
	ldr	r10, [sp]
	add	r3, fp, r3
	.loc 6 82 0
	orr	r5, r5, ip, asl #24
	str	r1, [r9, #188]
	.loc 6 85 0
	add	ip, r3, r10
	.loc 6 82 0
	ldrb	r1, [r3, #8]	@ zero_extendqisi2
	str	r1, [sp, #8]
	ldrb	r1, [ip, #4]	@ zero_extendqisi2
	.loc 6 83 0
	ldrb	r6, [r8, #16]	@ zero_extendqisi2
	.loc 6 82 0
	orr	r2, r2, r7, asl #24
	str	r1, [sp, #20]
	.loc 6 83 0
	ldrb	r7, [fp, #16]	@ zero_extendqisi2
	.loc 6 82 0
	ldrb	r1, [ip, #5]	@ zero_extendqisi2
	str	r5, [r9, #196]
	str	r4, [r9, #168]
	ldrb	r5, [r8, r10, asl #1]	@ zero_extendqisi2
	ldrb	r4, [fp, r10, asl #1]	@ zero_extendqisi2
	ldrb	r8, [r3, #5]	@ zero_extendqisi2
.LVL448:
	ldrb	r10, [r3, #1]	@ zero_extendqisi2
	ldrb	fp, [ip, #1]	@ zero_extendqisi2
	str	lr, [r9, #184]
	str	r2, [r9, #192]
	ldrb	lr, [r3, #4]	@ zero_extendqisi2
	ldrb	r2, [r3, #12]	@ zero_extendqisi2
	.loc 6 83 0
	strb	r7, [sp, #304]
	strb	r6, [sp, #280]
.LVL449:
	.loc 6 82 0
	ldrb	r7, [r3, #9]	@ zero_extendqisi2
	ldrb	r6, [r3, #13]	@ zero_extendqisi2
	str	r1, [sp, #32]
	ldrb	r1, [r3, #2]	@ zero_extendqisi2
	str	r1, [sp, #4]
	ldrb	r1, [ip, #2]	@ zero_extendqisi2
	str	r1, [sp, #28]
	ldrb	r1, [r3, #6]	@ zero_extendqisi2
	str	r1, [sp, #12]
	ldrb	r1, [r3, #10]	@ zero_extendqisi2
	str	r1, [sp, #16]
	ldr	r1, [sp, #8]
	orr	r2, r2, r6, asl #8
	orr	r1, r1, r7, asl #8
	ldr	r6, [sp, #20]
	ldr	r7, [sp, #32]
	orr	r5, r5, r10, asl #8
	orr	r6, r6, r7, asl #8
	ldr	r7, [sp, #4]
	orr	r4, r4, fp, asl #8
	orr	r5, r5, r7, asl #16
	ldr	r7, [sp, #28]
	orr	lr, lr, r8, asl #8
	orr	r4, r4, r7, asl #16
	str	r4, [sp, #4]
	ldr	r4, [sp, #12]
	ldrb	r10, [r3, #14]	@ zero_extendqisi2
	orr	lr, lr, r4, asl #16
	ldr	r4, [sp, #16]
	str	r10, [sp, #24]
	orr	r1, r1, r4, asl #16
	ldrb	r10, [ip, #6]	@ zero_extendqisi2
	ldr	r4, [sp, #24]
	str	r10, [sp, #36]
	ldrb	r8, [r3, #3]	@ zero_extendqisi2
	orr	r2, r2, r4, asl #16
	ldr	r4, [sp, #36]
	str	r8, [sp, #8]
	orr	r6, r6, r4, asl #16
	ldr	r4, [sp, #8]
	ldrb	r8, [r3, #11]	@ zero_extendqisi2
	ldrb	fp, [ip, #3]	@ zero_extendqisi2
	ldrb	r10, [r3, #7]	@ zero_extendqisi2
	str	r8, [sp, #20]
	orr	r5, r5, r4, asl #24
	ldrb	r8, [r3, #15]	@ zero_extendqisi2
	ldr	r4, [sp, #4]
	ldrb	r7, [ip, #7]	@ zero_extendqisi2
	orr	r4, r4, fp, asl #24
	orr	lr, lr, r10, asl #24
	orr	r2, r2, r8, asl #24
	ldr	r10, [sp, #20]
	.loc 6 83 0
	ldrb	r8, [r3, #16]	@ zero_extendqisi2
	.loc 6 85 0
	ldr	fp, [sp]
	.loc 6 82 0
	orr	r10, r1, r10, asl #24
	orr	r6, r6, r7, asl #24
	.loc 6 85 0
	add	r1, ip, fp
	.loc 6 82 0
	str	r6, [r9, #236]
	ldrb	r6, [r3, fp, asl #1]	@ zero_extendqisi2
	ldrb	r3, [r1, #9]	@ zero_extendqisi2
.LVL450:
	str	r3, [sp, #20]
	ldrb	r3, [r1, #12]	@ zero_extendqisi2
	str	r3, [sp, #28]
	ldrb	r3, [ip, #10]	@ zero_extendqisi2
	str	r3, [sp, #8]
	ldrb	r3, [r1, #2]	@ zero_extendqisi2
	str	r2, [r9, #220]
	str	r3, [sp, #16]
	ldrb	r2, [ip, #9]	@ zero_extendqisi2
	ldrb	r3, [ip, #14]	@ zero_extendqisi2
	str	r2, [sp, #4]
	str	r3, [sp, #12]
	ldrb	r3, [r1, #6]	@ zero_extendqisi2
	ldrb	r7, [ip, #8]	@ zero_extendqisi2
	str	r3, [sp, #24]
	ldr	r3, [sp, #4]
	str	r5, [r9, #208]
	str	lr, [r9, #212]
	ldrb	r5, [ip, #13]	@ zero_extendqisi2
	ldrb	lr, [ip, #12]	@ zero_extendqisi2
	ldrb	r2, [r1, #4]	@ zero_extendqisi2
	ldrb	fp, [r1, #13]	@ zero_extendqisi2
	str	r4, [r9, #232]
	str	r10, [r9, #216]
	ldrb	r4, [r1, #5]	@ zero_extendqisi2
	ldrb	r10, [r1, #8]	@ zero_extendqisi2
	.loc 6 83 0
	strb	r8, [sp, #328]
.LVL451:
	.loc 6 82 0
	orr	r7, r7, r3, asl #8
	ldrb	r8, [r1, #1]	@ zero_extendqisi2
	ldrb	r3, [r1, #10]	@ zero_extendqisi2
	str	r3, [sp, #32]
	orr	r5, lr, r5, asl #8
	ldr	r3, [sp, #20]
	ldrb	lr, [ip, #11]	@ zero_extendqisi2
	str	lr, [sp, #4]
	orr	r6, r6, r8, asl #8
	ldr	lr, [sp, #28]
	ldrb	r8, [r1, #14]	@ zero_extendqisi2
	str	r8, [sp, #36]
	orr	r3, r10, r3, asl #8
	ldrb	r8, [r1, #3]	@ zero_extendqisi2
	ldr	r10, [sp, #8]
	str	r8, [sp, #20]
	orr	r4, r2, r4, asl #8
	orr	r8, lr, fp, asl #8
	ldr	r2, [sp, #12]
	ldrb	lr, [r1, #7]	@ zero_extendqisi2
	str	lr, [sp, #28]
	orr	r7, r7, r10, asl #16
	ldr	lr, [sp, #4]
	ldrb	r10, [r1, #11]	@ zero_extendqisi2
	str	r10, [sp, #8]
	orr	r5, r5, r2, asl #16
	ldr	r10, [sp, #16]
	ldr	r2, [sp, #24]
	orr	r7, r7, lr, asl #24
	ldr	lr, [sp, #20]
	orr	r6, r6, r10, asl #16
	orr	r4, r4, r2, asl #16
	ldr	r2, [sp, #32]
	orr	r6, r6, lr, asl #24
	ldr	lr, [sp, #28]
	orr	r3, r3, r2, asl #16
	ldr	r2, [sp, #36]
	orr	r4, r4, lr, asl #24
	ldr	lr, [sp, #8]
	orr	r8, r8, r2, asl #16
	.loc 6 85 0
	ldr	r2, [sp]
	.loc 6 82 0
	ldrb	fp, [ip, #15]	@ zero_extendqisi2
	ldrb	r10, [r1, #15]	@ zero_extendqisi2
	orr	lr, r3, lr, asl #24
	.loc 6 85 0
	ldr	r3, [sp]
	add	r2, r1, r2
	.loc 6 82 0
	orr	r5, r5, fp, asl #24
	orr	r8, r8, r10, asl #24
	add	fp, sp, #376
	.loc 6 85 0
	add	r10, r2, r3
	.loc 6 82 0
	str	r7, [r9, #240]
	str	fp, [sp, #8]
	.loc 6 85 0
	str	r10, [sp, #4]
	.loc 6 83 0
	ldrb	fp, [r1, #16]	@ zero_extendqisi2
	ldrb	r10, [ip, #16]	@ zero_extendqisi2
	.loc 6 82 0
	str	r6, [sp, #360]
	str	r5, [r9, #244]
	ldrb	r6, [r1, r3, asl #1]	@ zero_extendqisi2
	ldrb	r5, [ip, r3, asl #1]	@ zero_extendqisi2
	ldr	r1, [sp, #4]
	ldrb	r3, [r2, #8]	@ zero_extendqisi2
	str	r4, [sp, #364]
	ldr	r4, [sp, #8]
	str	r3, [sp, #40]
	ldrb	r3, [r2, #9]	@ zero_extendqisi2
	str	r8, [r4, #-4]
	ldrb	r7, [r1, #5]	@ zero_extendqisi2
	ldrb	ip, [r1, #4]	@ zero_extendqisi2
.LVL452:
	.loc 6 83 0
	strb	fp, [sp, #376]
	.loc 6 82 0
	str	r3, [sp, #16]
	ldrb	fp, [r1, #1]	@ zero_extendqisi2
	mov	r3, r1
	ldrb	r1, [r1, #2]	@ zero_extendqisi2
	str	r1, [sp, #28]
	ldrb	r1, [r2, #2]	@ zero_extendqisi2
	str	r1, [sp, #8]
	ldrb	r1, [r2, #6]	@ zero_extendqisi2
	.loc 6 83 0
	strb	r10, [sp, #352]
.LVL453:
	.loc 6 82 0
	str	r1, [sp, #12]
	ldrb	r10, [r2, #1]	@ zero_extendqisi2
	ldrb	r1, [r2, #14]	@ zero_extendqisi2
	str	r1, [sp, #24]
	orr	r6, r6, fp, asl #8
	ldrb	r1, [r3, #6]	@ zero_extendqisi2
	ldrb	fp, [r2, #10]	@ zero_extendqisi2
	ldrb	r9, [r2, #5]	@ zero_extendqisi2
	ldrb	r8, [r2, #13]	@ zero_extendqisi2
	str	lr, [r4, #-8]
	str	r1, [sp, #36]
	ldrb	r4, [r2, #4]	@ zero_extendqisi2
	ldrb	lr, [r2, #12]	@ zero_extendqisi2
	orr	r5, r5, r10, asl #8
	str	fp, [sp, #20]
	orr	ip, ip, r7, asl #8
	ldrb	r10, [r3, #3]	@ zero_extendqisi2
	ldr	r7, [sp, #16]
	ldr	r3, [sp, #40]
	orr	lr, lr, r8, asl #8
	orr	r1, r3, r7, asl #8
	ldr	r3, [sp, #4]
	orr	r4, r4, r9, asl #8
	ldrb	r8, [r3, #7]	@ zero_extendqisi2
	ldr	r3, [sp, #28]
	str	r10, [sp, #32]
	orr	r6, r6, r3, asl #16
	ldr	r3, [sp, #8]
	ldrb	r9, [r2, #15]	@ zero_extendqisi2
	orr	r5, r5, r3, asl #16
	ldr	r3, [sp, #12]
	ldrb	r7, [r2, #11]	@ zero_extendqisi2
	orr	r4, r4, r3, asl #16
	ldr	r3, [sp, #24]
.LBE361:
.LBE360:
	.loc 5 697 0
	str	r0, [sp, #8]
.LBB364:
.LBB362:
	.loc 6 82 0
	orr	lr, lr, r3, asl #16
	ldr	r3, [sp, #36]
	ldrb	r10, [r2, #7]	@ zero_extendqisi2
	orr	ip, ip, r3, asl #16
	ldr	r3, [sp, #20]
	ldrb	fp, [r2, #3]	@ zero_extendqisi2
	orr	r1, r1, r3, asl #16
	ldr	r3, [sp, #32]
	orr	lr, lr, r9, asl #24
	orr	r6, r6, r3, asl #24
	.loc 6 85 0
	ldr	r9, [sp]
	ldr	r3, [sp, #4]
	ldr	r0, [sp, #8]
	.loc 6 82 0
	orr	r7, r1, r7, asl #24
	orr	r5, r5, fp, asl #24
	.loc 6 85 0
	add	r1, r3, r9
	.loc 6 82 0
	orr	r4, r4, r10, asl #24
	orr	ip, ip, r8, asl #24
	ldrb	r10, [r3, #8]	@ zero_extendqisi2
	.loc 6 83 0
	ldrb	r8, [r2, #16]	@ zero_extendqisi2
	add	r0, r0, r9
.LVL454:
	.loc 6 82 0
	str	r7, [sp, #392]
	ldrb	r7, [r3, #9]	@ zero_extendqisi2
	str	r6, [sp, #408]
	str	r5, [sp, #384]
	ldrb	r6, [r2, r9, asl #1]	@ zero_extendqisi2
	str	r4, [sp, #388]
	str	lr, [sp, #396]
	str	ip, [sp, #412]
	.loc 6 83 0
	strb	r8, [sp, #400]
.LVL455:
	str	r0, [sp, #12]
	.loc 6 82 0
	ldrb	fp, [r1, #1]	@ zero_extendqisi2
	ldrb	r9, [r3, #13]	@ zero_extendqisi2
	ldrb	r5, [r3, #12]	@ zero_extendqisi2
	orr	r7, r10, r7, asl #8
	ldrb	r10, [r1, #14]	@ zero_extendqisi2
	ldrb	r8, [r1, #5]	@ zero_extendqisi2
	ldrb	r4, [r1, #4]	@ zero_extendqisi2
	str	r10, [sp, #40]
	orr	r5, r5, r9, asl #8
	ldr	r10, [sp, #12]
	ldr	r9, [sp]
	mov	ip, r3
	ldrb	r3, [r1, #12]	@ zero_extendqisi2
.LVL456:
	str	r3, [sp, #36]
	add	r10, r10, r9
	ldrb	r3, [ip, #10]	@ zero_extendqisi2
	orr	r4, r4, r8, asl #8
	ldrb	ip, [ip, #14]	@ zero_extendqisi2
.LVL457:
	ldr	r8, [sp, #4]
	ldrb	r2, [r1, #8]	@ zero_extendqisi2
	ldrb	lr, [r1, #13]	@ zero_extendqisi2
	str	ip, [sp, #20]
	str	r10, [sp, #16]
	ldrb	ip, [r1, #6]	@ zero_extendqisi2
	ldr	r10, [sp, #36]
	str	r2, [sp, #28]
	str	ip, [sp, #24]
	ldrb	ip, [r8, #11]	@ zero_extendqisi2
	ldrb	r8, [r8, #15]	@ zero_extendqisi2
	ldrb	r2, [r1, #2]	@ zero_extendqisi2
	orr	r6, r6, fp, asl #8
	orr	lr, r10, lr, asl #8
	ldrb	fp, [r1, #10]	@ zero_extendqisi2
	ldr	r10, [sp, #28]
	str	r8, [sp, #28]
	ldrb	r8, [r1, #7]	@ zero_extendqisi2
	ldrb	r0, [r1, #9]	@ zero_extendqisi2
	str	fp, [sp, #32]
	orr	r7, r7, r3, asl #16
	ldrb	fp, [r1, #3]	@ zero_extendqisi2
	str	r8, [sp, #36]
	ldrb	r8, [r1, #15]	@ zero_extendqisi2
	ldr	r3, [sp, #20]
	orr	r6, r6, r2, asl #16
	ldr	r2, [sp, #16]
	orr	r5, r5, r3, asl #16
	ldr	r3, [sp, #24]
	add	r2, r2, r9
	orr	r4, r4, r3, asl #16
	str	r2, [sp, #20]
	mov	r3, r2
	ldr	r2, [sp, #40]
	add	r3, r3, r9
	orr	r7, r7, ip, asl #24
	add	ip, sp, #424
	str	ip, [sp]
.LVL458:
	orr	lr, lr, r2, asl #16
	orr	ip, r6, fp, asl #24
	ldr	r2, [sp, #32]
	str	r3, [sp, #24]
	add	r3, r3, r9
	ldr	r6, [sp]
	str	ip, [sp, #32]
	ldr	fp, [sp, #36]
	ldr	ip, [sp, #28]
	orr	lr, lr, r8, asl #24
	orr	r0, r10, r0, asl #8
	.loc 6 83 0
	ldr	r8, [sp, #4]
	.loc 6 82 0
	ldrb	r10, [r1, #11]	@ zero_extendqisi2
	str	r3, [sp, #48]
	add	r3, r3, r9
	orr	r0, r0, r2, asl #16
	str	r3, [sp, #28]
	.loc 6 85 0
	add	r2, r1, r9
	.loc 6 82 0
	ldr	r3, [sp, #4]
	orr	r5, r5, ip, asl #24
	orr	r4, r4, fp, asl #24
	orr	r10, r0, r10, asl #24
	.loc 6 83 0
	ldrb	fp, [r1, #16]	@ zero_extendqisi2
	.loc 6 85 0
	add	r0, r2, r9
	.loc 6 83 0
	ldrb	r8, [r8, #16]	@ zero_extendqisi2
	.loc 6 82 0
	str	r7, [r6, #-8]
	ldr	r7, [sp, #32]
	str	r5, [r6, #-4]
	str	r7, [sp, #432]
	ldrb	r6, [r2, #1]	@ zero_extendqisi2
	ldrb	r7, [r0, #1]	@ zero_extendqisi2
	str	r4, [sp, #436]
	str	lr, [sp, #444]
	ldrb	r4, [r1, r9, asl #1]	@ zero_extendqisi2
	ldrb	lr, [r3, r9, asl #1]	@ zero_extendqisi2
	str	r10, [sp, #440]
	.loc 6 83 0
	strb	fp, [sp, #448]
	strb	r8, [sp, #424]
.LVL459:
	.loc 6 82 0
	mov	fp, r9
	ldrb	ip, [r0, #4]	@ zero_extendqisi2
	ldrb	r8, [r0, #5]	@ zero_extendqisi2
	ldrb	r9, [r2, #9]	@ zero_extendqisi2
.LVL460:
	ldrb	r3, [r2, #8]	@ zero_extendqisi2
	orr	ip, ip, r8, asl #8
	orr	r3, r3, r9, asl #8
	ldrb	r8, [r2, #2]	@ zero_extendqisi2
	ldrb	r5, [r2, #12]	@ zero_extendqisi2
	str	r3, [sp]
	orr	lr, lr, r6, asl #8
	ldr	r3, [sp, #28]
	ldrb	r6, [r2, #13]	@ zero_extendqisi2
	ldrb	r10, [r2, #5]	@ zero_extendqisi2
	ldrb	r1, [r2, #4]	@ zero_extendqisi2
	orr	lr, lr, r8, asl #16
	ldrb	r8, [r2, #14]	@ zero_extendqisi2
	ldrb	r9, [r2, #6]	@ zero_extendqisi2
	orr	r4, r4, r7, asl #8
	orr	r5, r5, r6, asl #8
	ldrb	r7, [r0, #2]	@ zero_extendqisi2
	add	r3, r3, fp
	ldrb	r6, [r2, #10]	@ zero_extendqisi2
	str	r3, [sp, #32]
	orr	r1, r1, r10, asl #8
	ldr	r3, [sp]
	orr	r5, r5, r8, asl #16
	ldrb	r8, [r2, #7]	@ zero_extendqisi2
	ldrb	r10, [r0, #6]	@ zero_extendqisi2
	orr	r4, r4, r7, asl #16
	orr	r1, r1, r9, asl #16
	ldrb	r7, [r0, #3]	@ zero_extendqisi2
	orr	r1, r1, r8, asl #24
	orr	r3, r3, r6, asl #16
	ldr	r8, [sp, #32]
	ldrb	r6, [r0, #7]	@ zero_extendqisi2
	orr	r4, r4, r7, asl #24
	orr	ip, ip, r10, asl #16
	ldrb	r7, [r2, #11]	@ zero_extendqisi2
	ldrb	r9, [r2, #3]	@ zero_extendqisi2
	orr	ip, ip, r6, asl #24
	add	r8, r8, fp
	ldrb	r6, [r2, #15]	@ zero_extendqisi2
	orr	r3, r3, r7, asl #24
	add	r7, r8, fp
	orr	r5, r5, r6, asl #24
	.loc 6 83 0
	ldrb	r2, [r2, #16]	@ zero_extendqisi2
.LVL461:
	.loc 6 82 0
	orr	lr, lr, r9, asl #24
	add	r6, r7, fp
	str	r4, [sp, #480]
	str	lr, [sp, #456]
	str	ip, [sp, #484]
	str	r1, [sp, #460]
	str	r8, [sp, #52]
	str	r7, [sp, #56]
	str	r6, [sp, #60]
	str	r3, [sp, #464]
	.loc 6 83 0
	strb	r2, [sp, #472]
.LVL462:
	add	r2, r6, fp
	.loc 6 82 0
	ldrb	r1, [r0, #9]	@ zero_extendqisi2
	ldrb	r4, [r0, #13]	@ zero_extendqisi2
	ldrb	r3, [r0, #8]	@ zero_extendqisi2
	str	r5, [sp, #468]
	str	r2, [sp, #64]
	mov	r5, r2
	ldrb	r2, [r0, #12]	@ zero_extendqisi2
	ldrb	lr, [r0, #14]	@ zero_extendqisi2
	orr	r3, r3, r1, asl #8
	orr	r2, r2, r4, asl #8
	ldrb	r1, [r0, #10]	@ zero_extendqisi2
	orr	r2, r2, lr, asl #16
	ldrb	lr, [r0, #15]	@ zero_extendqisi2
	add	r5, r5, fp
	orr	r3, r3, r1, asl #16
	ldrb	r1, [r0, #11]	@ zero_extendqisi2
	orr	r2, r2, lr, asl #24
	.loc 6 83 0
	ldr	ip, .L152
	add	lr, r5, fp
	.loc 6 82 0
	orr	r3, r3, r1, asl #24
	add	r1, lr, fp
.LPIC27:
	ldr	ip, [pc, ip]		@ tls_load_dot_plus_eight
	str	lr, [sp, #72]
	mov	lr, r1
	str	r1, [sp, #76]
	.loc 6 83 0
	ldrb	r1, [r0, #16]	@ zero_extendqisi2
	add	r0, lr, fp
.LVL463:
	ldr	r4, [sp, #8]
	str	r0, [sp, #44]
.LBE362:
.LBE364:
.LBB365:
.LBB366:
.LBB367:
	.loc 5 697 0 discriminator 3
	add	r0, ip, #1024
	str	r0, [sp]
.LBE367:
.LBE366:
.LBE365:
.LBB372:
.LBB363:
	.loc 6 83 0
	add	r0, sp, #96
	sub	r4, r4, #1
	.loc 6 82 0
	str	r2, [sp, #492]
	str	r3, [sp, #488]
	add	r2, sp, #112
	.loc 6 83 0
	mov	r3, r0
	str	r5, [sp, #68]
	str	r4, [sp, #36]
	str	r4, [sp, #40]
	str	r2, [sp, #92]
	strb	r1, [sp, #496]
.LVL464:
.L149:
.LBE363:
.LBE372:
.LBB373:
.LBB371:
.LBB368:
	.loc 5 697 0 discriminator 3
	ldrb	r0, [r3]	@ zero_extendqisi2
.LVL465:
	ldrb	r2, [r3, #48]	@ zero_extendqisi2
	ldrb	r1, [r3, #24]	@ zero_extendqisi2
.LVL466:
	ldrb	r8, [r3, #72]	@ zero_extendqisi2
.LVL467:
	add	r4, r0, r2
	add	lr, r0, r1
	sub	r4, r4, r4, asl #2
	ldrb	r7, [r3, #96]	@ zero_extendqisi2
.LVL468:
	add	ip, r1, r8
	mov	r4, r4, asl #1
	add	lr, lr, lr, asl #2
	add	lr, r4, lr, asl #2
	add	ip, ip, ip, asl #1
	add	lr, lr, ip
	add	ip, r2, r7
	ldr	fp, [sp]
	ldr	r5, [sp, #40]
	rsb	lr, ip, lr
	add	lr, lr, #16
	ldrb	r9, [r5, #1]!	@ zero_extendqisi2
	ldrb	lr, [fp, lr, asr #5]	@ zero_extendqisi2
	add	r4, r0, r8
	add	ip, r1, r2
	sub	r4, r4, r4, asl #2
	ldrb	r6, [r3, #120]	@ zero_extendqisi2
.LVL469:
	str	r5, [sp, #40]
	mov	r4, r4, asl #1
	add	r5, r0, r7
	add	lr, r9, lr
	add	ip, ip, ip, asl #2
	ldr	r9, [sp, #36]
	add	ip, r4, ip, asl #2
	add	r5, r5, r5, asl #1
	add	lr, lr, #1
	add	r10, r1, r6
	add	r5, ip, r5
	mov	lr, lr, asr #1
	strb	lr, [r9, #1]!
	rsb	r5, r10, r5
	ldr	lr, [sp, #12]
	add	r5, r5, #16
	ldrb	r10, [lr]	@ zero_extendqisi2
	add	r4, r1, r7
	ldrb	lr, [fp, r5, asr #5]	@ zero_extendqisi2
	add	ip, r2, r8
	sub	r4, r4, r4, asl #2
	ldrb	r5, [r3, #144]	@ zero_extendqisi2
.LVL470:
	str	r9, [sp, #36]
	mov	r4, r4, asl #1
	add	r9, r0, r6
	add	lr, r10, lr
	add	ip, ip, ip, asl #2
	add	ip, r4, ip, asl #2
	add	r9, r9, r9, asl #1
	ldr	r4, [sp, #12]
	add	lr, lr, #1
	add	fp, r0, r5
	add	ip, ip, r9
	mov	lr, lr, asr #1
	strb	lr, [r4], #1
	rsb	ip, fp, ip
	ldr	lr, [sp]
	str	r4, [sp, #12]
	ldr	r4, [sp, #16]
	add	ip, ip, #16
	ldrb	fp, [r4]	@ zero_extendqisi2
	ldrb	ip, [lr, ip, asr #5]	@ zero_extendqisi2
	add	r10, r2, r6
	add	r9, r8, r7
	sub	r10, r10, r10, asl #2
	ldrb	r4, [r3, #168]	@ zero_extendqisi2
.LVL471:
	add	lr, r1, r5
	mov	r10, r10, asl #1
	add	ip, fp, ip
	add	r9, r9, r9, asl #2
	ldr	fp, [sp, #16]
	add	r9, r10, r9, asl #2
	add	lr, lr, lr, asl #1
	add	ip, ip, #1
	add	r9, r9, lr
	mov	ip, ip, asr #1
	add	lr, r0, r4
	strb	ip, [fp], #1
	rsb	lr, lr, r9
	ldr	ip, [sp, #20]
	ldr	r0, [sp]
.LVL472:
	add	r10, r8, r5
	add	lr, lr, #16
	add	r9, r7, r6
	str	fp, [sp, #16]
	ldrb	r0, [r0, lr, asr #5]	@ zero_extendqisi2
	ldrb	fp, [ip]	@ zero_extendqisi2
	sub	r10, r10, r10, asl #2
	ldrb	lr, [r3, #192]	@ zero_extendqisi2
.LVL473:
	add	ip, r2, r4
	mov	r10, r10, asl #1
	add	r9, r9, r9, asl #2
	add	r9, r10, r9, asl #2
	add	ip, ip, ip, asl #1
	add	r0, fp, r0
	add	r9, r9, ip
	add	r0, r0, #1
	add	ip, r1, lr
	ldr	r1, [sp, #20]
.LVL474:
	mov	r0, r0, asr #1
	strb	r0, [r1], #1
	add	r10, r7, r4
	ldr	r0, [sp]
	rsb	ip, ip, r9
	str	r1, [sp, #20]
	ldr	r1, [sp, #24]
	add	r9, r6, r5
	add	ip, ip, #16
	sub	r10, r10, r10, asl #2
	ldrb	fp, [r1]	@ zero_extendqisi2
	mov	r10, r10, asl #1
	ldrb	r1, [r0, ip, asr #5]	@ zero_extendqisi2
	add	r9, r9, r9, asl #2
	ldrb	ip, [r3, #216]	@ zero_extendqisi2
.LVL475:
	add	r0, r8, lr
	add	r9, r10, r9, asl #2
	add	r0, r0, r0, asl #1
	add	r9, r9, r0
	add	r2, r2, ip
.LVL476:
	rsb	r2, r2, r9
	ldrb	r9, [r3, #288]	@ zero_extendqisi2
	str	r9, [sp, #4]
	ldrb	r9, [r3, #312]	@ zero_extendqisi2
	add	r1, fp, r1
	str	r9, [sp, #80]
	ldrb	r9, [r3, #336]	@ zero_extendqisi2
	ldr	fp, [sp, #24]
	str	r9, [sp, #84]
	add	r1, r1, #1
	ldrb	r9, [r3, #360]	@ zero_extendqisi2
	mov	r1, r1, asr #1
	str	r9, [sp, #8]
	ldrb	r9, [r3, #384]	@ zero_extendqisi2
	strb	r1, [fp], #1
	str	r9, [sp, #88]
	str	fp, [sp, #24]
	ldr	r9, [sp]
	ldr	fp, [sp, #48]
	add	r10, r6, lr
	add	r2, r2, #16
	ldrb	r1, [fp]	@ zero_extendqisi2
	ldrb	r2, [r9, r2, asr #5]	@ zero_extendqisi2
	sub	r10, r10, r10, asl #2
	add	r9, r5, r4
	str	r1, [sp, #48]
	mov	r10, r10, asl #1
	add	r9, r9, r9, asl #2
	add	r9, r10, r9, asl #2
	ldr	r10, [sp, #48]
	ldrb	r0, [r3, #240]	@ zero_extendqisi2
.LVL477:
	add	r2, r10, r2
	add	r10, r7, ip
	add	r10, r10, r10, asl #1
	add	r9, r9, r10
	add	r10, r2, #1
	add	r8, r8, r0
.LVL478:
	mov	r10, r10, asr #1
	strb	r10, [fp], #1
	add	r2, r5, ip
	rsb	r8, r8, r9
	ldr	r10, [sp]
	add	r9, r4, lr
	add	r8, r8, #16
	sub	r2, r2, r2, asl #2
	ldrb	r1, [r3, #264]	@ zero_extendqisi2
.LVL479:
	str	fp, [sp, #48]
	add	r9, r9, r9, asl #2
	ldrb	r8, [r10, r8, asr #5]	@ zero_extendqisi2
	mov	r2, r2, asl #1
	ldr	fp, [sp, #28]
	add	r2, r2, r9, asl #2
	add	r9, r6, r0
	ldrb	r10, [fp]	@ zero_extendqisi2
	add	r9, r9, r9, asl #1
	add	r2, r2, r9
	add	r7, r7, r1
.LVL480:
	add	r10, r10, r8
	rsb	r7, r7, r2
	add	r2, r4, r0
	sub	r8, r2, r2, asl #2
	add	r10, r10, #1
	add	r2, lr, ip
	mov	r10, r10, asr #1
	mov	r8, r8, asl #1
	add	r2, r2, r2, asl #2
	strb	r10, [fp], #1
	add	r9, r5, r1
	ldr	r10, [sp]
	str	fp, [sp, #28]
	add	r2, r8, r2, asl #2
	ldr	fp, [sp, #32]
	ldr	r8, [sp, #4]
	add	r9, r9, r9, asl #1
	add	r7, r7, #16
	ldrb	r7, [r10, r7, asr #5]	@ zero_extendqisi2
	add	r2, r2, r9
	ldrb	r10, [fp]	@ zero_extendqisi2
	add	r6, r6, r8
.LVL481:
	rsb	r6, r6, r2
	add	r2, lr, r1
	add	r10, r10, r7
	ldr	r8, [sp, #4]
	sub	r7, r2, r2, asl #2
	add	r2, ip, r0
	mov	r7, r7, asl #1
	add	r10, r10, #1
	add	r2, r2, r2, asl #2
	mov	r10, r10, asr #1
	add	r8, r4, r8
	add	r2, r7, r2, asl #2
	ldr	r7, [sp, #80]
	strb	r10, [fp], #1
	add	r8, r8, r8, asl #1
	ldr	r10, [sp]
	str	fp, [sp, #32]
	ldr	fp, [sp, #52]
	add	r2, r2, r8
	add	r5, r5, r7
.LVL482:
	add	r6, r6, #16
	ldrb	r6, [r10, r6, asr #5]	@ zero_extendqisi2
	ldrb	r9, [fp]	@ zero_extendqisi2
	rsb	r5, r5, r2
	ldr	r2, [sp, #4]
	add	r9, r9, r6
	add	r2, ip, r2
	sub	r6, r2, r2, asl #2
	add	r9, r9, #1
	add	r2, r0, r1
	mov	r8, fp
	mov	r9, r9, asr #1
	mov	r6, r6, asl #1
	add	r2, r2, r2, asl #2
	strb	r9, [r8], #1
	ldr	fp, [sp, #56]
	mov	r9, r7
	add	r2, r6, r2, asl #2
	add	r7, lr, r7
	ldr	r6, [sp, #84]
	add	r7, r7, r7, asl #1
	add	r5, r5, #16
	ldrb	r5, [r10, r5, asr #5]	@ zero_extendqisi2
	add	r2, r2, r7
	str	r8, [sp, #52]
	add	r4, r4, r6
.LVL483:
	ldrb	r8, [fp]	@ zero_extendqisi2
	rsb	r4, r4, r2
	add	r2, r0, r9
	add	r8, r8, r5
	sub	r5, r2, r2, asl #2
	ldr	r2, [sp, #4]
	add	r8, r8, #1
	add	r2, r1, r2
	mov	r7, fp
	mov	r8, r8, asr #1
	mov	r5, r5, asl #1
	add	r2, r2, r2, asl #2
	strb	r8, [r7], #1
	ldr	fp, [sp, #60]
	mov	r8, r6
	add	r2, r5, r2, asl #2
	add	r6, ip, r6
	ldr	r5, [sp, #8]
	add	r6, r6, r6, asl #1
	add	r4, r4, #16
	ldrb	r4, [r10, r4, asr #5]	@ zero_extendqisi2
	add	r2, r2, r6
	str	r7, [sp, #56]
	add	lr, lr, r5
.LVL484:
	ldrb	r7, [fp]	@ zero_extendqisi2
	rsb	lr, lr, r2
	add	r2, r1, r8
	add	r7, r7, r4
	sub	r4, r2, r2, asl #2
	ldr	r2, [sp, #4]
	add	r7, r7, #1
	add	r2, r2, r9
	mov	r6, fp
	mov	r7, r7, asr #1
	mov	r4, r4, asl #1
	add	r2, r2, r2, asl #2
	strb	r7, [r6], #1
	add	r2, r4, r2, asl #2
	mov	r7, r5
	ldr	r4, [sp, #88]
	add	r5, r0, r5
	ldr	fp, [sp, #64]
	add	r5, r5, r5, asl #1
	add	r2, r2, r5
	add	ip, ip, r4
.LVL485:
	add	lr, lr, #16
	ldrb	lr, [r10, lr, asr #5]	@ zero_extendqisi2
	rsb	ip, ip, r2
	str	r6, [sp, #60]
	ldr	r2, [sp, #4]
	ldrb	r6, [fp]	@ zero_extendqisi2
	add	r2, r2, r7
	add	r6, r6, lr
	mov	r7, r8
	sub	lr, r2, r2, asl #2
	add	r6, r6, #1
	add	r2, r9, r8
	mov	r8, fp
	ldr	fp, [sp, #68]
	mov	r6, r6, asr #1
	add	ip, ip, #16
	strb	r6, [r8], #1
	mov	lr, lr, asl #1
	ldrb	r5, [fp]	@ zero_extendqisi2
	ldrb	ip, [r10, ip, asr #5]	@ zero_extendqisi2
	str	r8, [sp, #64]
	add	r2, r2, r2, asl #2
	mov	r8, r4
	add	r4, r1, r4
	add	r2, lr, r2, asl #2
	add	r4, r4, r4, asl #1
	add	r2, r2, r4
	add	ip, r5, ip
	ldr	r4, [sp, #8]
	add	r0, r0, r8
.LVL486:
	add	ip, ip, #1
	rsb	r0, r0, r2
	add	r5, r9, r8
	mov	r2, fp
	ldr	r6, [sp, #4]
	ldr	fp, [sp, #72]
	mov	lr, ip, asr #1
	add	r0, r0, #16
	add	ip, r7, r4
	sub	r5, r5, r5, asl #2
	strb	lr, [r2], #1
	mov	r5, r5, asl #1
	ldrb	lr, [r10, r0, asr #5]	@ zero_extendqisi2
	str	r2, [sp, #68]
	ldrb	r0, [fp]	@ zero_extendqisi2
	add	ip, ip, ip, asl #2
	add	r2, r6, r8
	add	ip, r5, ip, asl #2
	add	r2, r2, r2, asl #1
	add	r1, r1, r4
.LVL487:
	add	r0, r0, lr
	add	ip, ip, r2
	mov	r5, r4
	rsb	ip, r1, ip
	add	r0, r0, #1
	add	r4, r7, r8
	mov	r2, fp
	mov	r0, r0, asr #1
	add	ip, ip, #16
	add	lr, r5, r8
	sub	r4, r4, r4, asl #2
	strb	r0, [r2], #1
	add	r1, r9, r5
	ldrb	r0, [r10, ip, asr #5]	@ zero_extendqisi2
	add	lr, lr, lr, asl #2
	ldr	ip, [sp, #76]
	mov	r4, r4, asl #1
	add	r1, r1, r1, asl #1
	add	r4, r4, lr, asl #2
	add	r4, r4, r1
	str	r2, [sp, #72]
	ldr	r1, [sp, #4]
	ldrb	r2, [ip]	@ zero_extendqisi2
	add	r1, r1, r7
	add	r2, r2, r0
	rsb	r4, r1, r4
	ldr	r0, [sp, #44]
	add	r2, r2, #1
	mov	r1, ip
	mov	r2, r2, asr #1
	add	r4, r4, #16
	strb	r2, [r1], #1
	ldrb	r2, [r0]	@ zero_extendqisi2
	str	r1, [sp, #76]
	ldrb	r1, [r10, r4, asr #5]	@ zero_extendqisi2
	add	r3, r3, #1
.LVL488:
	add	r2, r2, r1
.LBE368:
	.loc 5 697 0 is_stmt 0 discriminator 1
	ldr	r1, [sp, #92]
.LBB369:
	.loc 5 697 0 discriminator 3
	add	r2, r2, #1
.LBE369:
	.loc 5 697 0 discriminator 1
	cmp	r3, r1
.LBB370:
	.loc 5 697 0 discriminator 3
	mov	r2, r2, asr #1
	mov	r1, r0
	strb	r2, [r1], #1
	str	r1, [sp, #44]
.LVL489:
.LBE370:
	.loc 5 697 0 discriminator 1
	bne	.L149
.LBE371:
.LBE373:
	.loc 5 697 0
	add	sp, sp, #508
	.cfi_def_cfa_offset 36
	@ sp needed
	ldmfd	sp!, {r4, r5, r6, r7, r8, r9, r10, fp, pc}
.L153:
	.align	2
.L152:
	.word	ff_crop_tab(GOT_PREL)+(.-(.LPIC27+8))
	.cfi_endproc
.LFE223:
	.size	avg_qpel16_mc02_c, .-avg_qpel16_mc02_c
	.align	2
	.type	avg_mpeg4_qpel16_v_lowpass.constprop.1, %function
avg_mpeg4_qpel16_v_lowpass.constprop.1:
.LFB273:
	.loc 5 697 0 is_stmt 1
	.cfi_startproc
	@ args = 0, pretend = 0, frame = 112
	@ frame_needed = 0, uses_anonymous_args = 0
.LVL490:
	stmfd	sp!, {r4, r5, r6, r7, r8, r9, r10, fp, lr}
	.cfi_def_cfa_offset 36
	.cfi_offset 4, -36
	.cfi_offset 5, -32
	.cfi_offset 6, -28
	.cfi_offset 7, -24
	.cfi_offset 8, -20
	.cfi_offset 9, -16
	.cfi_offset 10, -12
	.cfi_offset 11, -8
	.cfi_offset 14, -4
	add	r3, r0, r2
	sub	sp, sp, #116
	.cfi_def_cfa_offset 152
.LVL491:
	str	r3, [sp, #32]
	add	r3, r3, r2
	str	r3, [sp, #36]
	add	r3, r3, r2
	str	r3, [sp, #40]
	add	r3, r3, r2
	str	r3, [sp, #44]
	add	r3, r3, r2
	str	r3, [sp, #48]
	add	r3, r3, r2
	str	r3, [sp, #52]
	add	r3, r3, r2
	str	r3, [sp, #88]
	add	r3, r3, r2
	str	r3, [sp, #84]
	add	r3, r3, r2
	str	r3, [sp, #80]
	add	r3, r3, r2
	str	r3, [sp, #76]
	add	r3, r3, r2
	.loc 5 697 0
	str	r0, [sp, #92]
.LVL492:
	str	r3, [sp, #72]
	mov	r0, r3
	ldr	r3, .L158
	add	r0, r0, r2
	str	r0, [sp, #68]
.LPIC29:
	ldr	r3, [pc, r3]		@ tls_load_dot_plus_eight
	add	r0, r0, r2
	str	r0, [sp, #64]
	add	r0, r0, r2
	add	r2, r0, r2
.LVL493:
.LBB374:
	.loc 5 697 0 is_stmt 0 discriminator 3
	add	r3, r3, #1024
	str	r2, [sp, #56]
	mov	r2, r3
	mov	r3, r1
	str	r3, [sp]
	add	r1, r1, #16
.LVL494:
	mov	r3, r2
.LVL495:
	str	r0, [sp, #60]
	str	r1, [sp, #108]
.LVL496:
.L155:
	ldr	r2, [sp]
	ldr	lr, [sp]
	ldrb	r8, [r2]	@ zero_extendqisi2
.LVL497:
	ldrb	r6, [r2, #32]	@ zero_extendqisi2
	ldrb	r7, [r2, #16]	@ zero_extendqisi2
.LVL498:
	ldrb	r5, [r2, #48]	@ zero_extendqisi2
.LVL499:
	add	ip, r8, r6
	add	r0, r8, r7
	sub	ip, ip, ip, asl #2
	ldrb	r4, [r2, #64]	@ zero_extendqisi2
.LVL500:
	add	r1, r7, r5
	mov	ip, ip, asl #1
	add	r0, r0, r0, asl #2
	add	r0, ip, r0, asl #2
	add	r1, r1, r1, asl #1
	add	r0, r0, r1
	add	ip, r6, r4
	rsb	ip, ip, r0
	add	r0, r8, r5
	add	r1, r7, r6
	sub	r0, r0, r0, asl #2
	ldrb	lr, [lr, #80]	@ zero_extendqisi2
.LVL501:
	add	r9, r8, r4
	mov	r0, r0, asl #1
	add	r1, r1, r1, asl #2
	add	r1, r0, r1, asl #2
	add	r9, r9, r9, asl #1
	ldr	r2, [sp, #92]
	add	r1, r1, r9
	add	fp, r7, lr
	rsb	fp, fp, r1
	add	ip, ip, #16
	add	r1, r6, r5
	ldrb	ip, [r3, ip, asr #5]	@ zero_extendqisi2
	ldrb	r10, [r2]	@ zero_extendqisi2
	str	r1, [sp, #104]
	ldr	r1, [sp]
	add	r10, r10, ip
	ldrb	r0, [r1, #112]	@ zero_extendqisi2
	ldrb	ip, [r1, #96]	@ zero_extendqisi2
.LVL502:
	ldrb	r1, [r1, #128]	@ zero_extendqisi2
	str	r1, [sp, #96]
.LVL503:
	ldr	r1, [sp]
	add	r10, r10, #1
	ldrb	r1, [r1, #144]	@ zero_extendqisi2
	str	r1, [sp, #20]
.LVL504:
	ldr	r1, [sp]
	mov	r10, r10, asr #1
	ldrb	r1, [r1, #160]	@ zero_extendqisi2
	str	r1, [sp, #100]
.LVL505:
	ldr	r1, [sp]
	add	r9, r7, r4
	ldrb	r1, [r1, #176]	@ zero_extendqisi2
	str	r1, [sp, #28]
.LVL506:
	ldr	r1, [sp]
	add	fp, fp, #16
	ldrb	r1, [r1, #192]	@ zero_extendqisi2
	str	r1, [sp, #4]
.LVL507:
	ldr	r1, [sp]
	sub	r9, r9, r9, asl #2
	ldrb	r1, [r1, #208]	@ zero_extendqisi2
	str	r1, [sp, #8]
.LVL508:
	ldr	r1, [sp]
	mov	r9, r9, asl #1
	ldrb	r1, [r1, #224]	@ zero_extendqisi2
.LVL509:
	str	r1, [sp, #24]
.LVL510:
	ldr	r1, [sp]
	ldrb	r1, [r1, #240]	@ zero_extendqisi2
	str	r1, [sp, #12]
.LVL511:
	ldr	r1, [sp]
	ldrb	r1, [r1, #256]	@ zero_extendqisi2
	str	r1, [sp, #16]
.LVL512:
	mov	r1, r2
	ldr	r2, [sp, #104]
	strb	r10, [r1], #1
	str	r1, [sp, #92]
.LVL513:
	add	r1, r2, r2, asl #2
.LVL514:
	ldr	r2, [sp, #32]
	ldrb	fp, [r3, fp, asr #5]	@ zero_extendqisi2
	ldrb	r10, [r2]	@ zero_extendqisi2
	add	r1, r9, r1, asl #2
	add	r10, r10, fp
	add	r9, r8, lr
	add	r9, r9, r9, asl #1
	add	r10, r10, #1
	add	r9, r1, r9
	mov	r10, r10, asr #1
	add	r1, r8, ip
	strb	r10, [r2], #1
	rsb	r9, r1, r9
	str	r2, [sp, #32]
	ldr	r2, [sp, #36]
	add	r1, r6, lr
	add	r9, r9, #16
	ldrb	r10, [r2]	@ zero_extendqisi2
	ldrb	r9, [r3, r9, asr #5]	@ zero_extendqisi2
	sub	fp, r1, r1, asl #2
	add	r1, r5, r4
	mov	fp, fp, asl #1
	add	r1, r1, r1, asl #2
	add	r1, fp, r1, asl #2
	add	r10, r10, r9
	add	fp, r7, ip
	add	fp, fp, fp, asl #1
	add	r10, r10, #1
	add	r8, r8, r0
.LVL515:
	add	fp, r1, fp
	mov	r10, r10, asr #1
	strb	r10, [r2], #1
	rsb	fp, r8, fp
	str	r2, [sp, #36]
	ldr	r2, [sp, #40]
	add	r1, r5, ip
	add	fp, fp, #16
	ldrb	r8, [r3, fp, asr #5]	@ zero_extendqisi2
	sub	r9, r1, r1, asl #2
	ldrb	fp, [r2]	@ zero_extendqisi2
	add	r1, r4, lr
	mov	r9, r9, asl #1
	add	r1, r1, r1, asl #2
	add	r10, r6, r0
	add	r1, r9, r1, asl #2
	add	fp, fp, r8
	ldr	r9, [sp, #96]
	add	r10, r10, r10, asl #1
	add	fp, fp, #1
	add	r1, r1, r10
	add	r7, r7, r9
.LVL516:
	mov	fp, fp, asr #1
	strb	fp, [r2], #1
	rsb	r7, r7, r1
	str	r2, [sp, #40]
	ldr	r2, [sp, #44]
	add	r1, r4, r0
	add	r7, r7, #16
	ldrb	r10, [r2]	@ zero_extendqisi2
	ldrb	r7, [r3, r7, asr #5]	@ zero_extendqisi2
	sub	r8, r1, r1, asl #2
	add	r1, lr, ip
	mov	r8, r8, asl #1
	add	r1, r1, r1, asl #2
	mov	fp, r9
	add	r1, r8, r1, asl #2
	add	r9, r5, r9
	ldr	r8, [sp, #20]
	add	r7, r10, r7
	add	r9, r9, r9, asl #1
	add	r7, r7, #1
	add	r1, r1, r9
	add	r6, r6, r8
.LVL517:
	mov	r7, r7, asr #1
	mov	r9, fp
	strb	r7, [r2], #1
	rsb	r6, r6, r1
	add	fp, lr, fp
	str	r2, [sp, #44]
	ldr	r2, [sp, #48]
	add	r10, ip, r0
	add	r6, r6, #16
	sub	fp, fp, fp, asl #2
	ldrb	r1, [r3, r6, asr #5]	@ zero_extendqisi2
	add	r7, r4, r8
	mov	fp, fp, asl #1
	ldrb	r8, [r2]	@ zero_extendqisi2
	add	r10, r10, r10, asl #2
	add	r10, fp, r10, asl #2
	ldr	fp, [sp, #100]
	add	r7, r7, r7, asl #1
	add	r1, r8, r1
	add	r10, r10, r7
	add	r5, r5, fp
.LVL518:
	add	r1, r1, #1
	rsb	r5, r5, r10
	mov	r1, r1, asr #1
	ldr	r10, [sp, #20]
	strb	r1, [r2], #1
	str	r2, [sp, #48]
	ldr	r2, [sp, #52]
	add	r8, ip, r10
	add	r5, r5, #16
	ldrb	r1, [r3, r5, asr #5]	@ zero_extendqisi2
	mov	r7, r9
	ldrb	r5, [r2]	@ zero_extendqisi2
	add	r9, r0, r9
	sub	r8, r8, r8, asl #2
	mov	r8, r8, asl #1
	add	r9, r9, r9, asl #2
	add	r6, lr, fp
	add	r9, r8, r9, asl #2
	add	r1, r5, r1
	ldr	r8, [sp, #28]
	add	r6, r6, r6, asl #1
	add	r1, r1, #1
	add	r9, r9, r6
	add	r4, r4, r8
.LVL519:
	mov	r1, r1, asr #1
	strb	r1, [r2], #1
	rsb	r4, r4, r9
	str	r2, [sp, #52]
	ldr	r2, [sp, #88]
	mov	r6, fp
	add	r4, r4, #16
	add	fp, r0, fp
	ldrb	r1, [r3, r4, asr #5]	@ zero_extendqisi2
	mov	r5, r10
	ldrb	r4, [r2]	@ zero_extendqisi2
	ldr	r8, [sp, #28]
	add	r10, r7, r10
	sub	fp, fp, fp, asl #2
	mov	fp, fp, asl #1
	add	r10, r10, r10, asl #2
	mov	r9, r7
	add	r10, fp, r10, asl #2
	add	r7, ip, r8
	ldr	fp, [sp, #4]
	add	r1, r4, r1
	add	r7, r7, r7, asl #1
	add	r1, r1, #1
	add	r10, r10, r7
	add	lr, lr, fp
.LVL520:
	mov	r1, r1, asr #1
	strb	r1, [r2], #1
	rsb	lr, lr, r10
	str	r2, [sp, #88]
	ldr	r2, [sp, #84]
	mov	r7, r8
	add	lr, lr, #16
	add	r8, r9, r8
	mov	fp, r6
	ldrb	r1, [r3, lr, asr #5]	@ zero_extendqisi2
	mov	r4, r9
	ldrb	lr, [r2]	@ zero_extendqisi2
	ldr	r9, [sp, #4]
	add	r6, r5, r6
	sub	r8, r8, r8, asl #2
	mov	r8, r8, asl #1
	add	r6, r6, r6, asl #2
	mov	r10, r5
	add	r6, r8, r6, asl #2
	add	r5, r0, r9
	ldr	r8, [sp, #8]
	add	r1, lr, r1
	add	r5, r5, r5, asl #1
	add	r1, r1, #1
	add	r6, r6, r5
	add	ip, ip, r8
.LVL521:
	mov	r1, r1, asr #1
	strb	r1, [r2], #1
	rsb	ip, ip, r6
	str	r2, [sp, #84]
	ldr	r2, [sp, #80]
	add	r9, r10, r9
	add	ip, ip, #16
	mov	r8, r4
	mov	r5, r7
	ldrb	r1, [r3, ip, asr #5]	@ zero_extendqisi2
	add	r7, fp, r7
	ldrb	ip, [r2]	@ zero_extendqisi2
	ldr	r4, [sp, #8]
	sub	r9, r9, r9, asl #2
	mov	r9, r9, asl #1
	add	r7, r7, r7, asl #2
	add	r4, r8, r4
	add	r7, r9, r7, asl #2
	add	r1, ip, r1
	ldr	r9, [sp, #24]
	add	r4, r4, r4, asl #1
	add	r1, r1, #1
	add	r7, r7, r4
	add	r0, r0, r9
.LVL522:
	mov	r1, r1, asr #1
	ldr	r4, [sp, #8]
	rsb	r0, r0, r7
	ldr	lr, [sp, #4]
	strb	r1, [r2], #1
	str	r2, [sp, #80]
	ldr	r2, [sp, #76]
	mov	r6, fp
	add	r0, r0, #16
	ldrb	r1, [r3, r0, asr #5]	@ zero_extendqisi2
	mov	fp, r6
	ldrb	r0, [r2]	@ zero_extendqisi2
	add	r6, r6, r4
	sub	r6, r6, r6, asl #2
	mov	r4, r5
	add	r5, r5, lr
	mov	r6, r6, asl #1
	add	lr, r10, r9
	ldr	ip, [sp, #12]
	add	r1, r0, r1
	add	r5, r5, r5, asl #2
	add	r5, r6, r5, asl #2
	add	lr, lr, lr, asl #1
	add	r1, r1, #1
	add	ip, r8, ip
	add	r5, r5, lr
	mov	r1, r1, asr #1
	strb	r1, [r2], #1
	rsb	lr, ip, r5
	mov	r7, r9
	str	r2, [sp, #76]
	ldr	r2, [sp, #72]
	mov	r9, r4
	add	r7, r4, r7
	add	lr, lr, #16
	ldmib	sp, {r4, r5}
	ldrb	r0, [r2]	@ zero_extendqisi2
	ldrb	r1, [r3, lr, asr #5]	@ zero_extendqisi2
	mov	r8, fp
	ldr	fp, [sp, #12]
	add	r4, r5, r4
	sub	r7, r7, r7, asl #2
	add	ip, r8, fp
	mov	r7, r7, asl #1
	ldr	lr, [sp, #16]
	add	r1, r0, r1
	add	r4, r4, r4, asl #2
	add	r4, r7, r4, asl #2
	add	ip, ip, ip, asl #1
	add	r1, r1, #1
	add	lr, r10, lr
	add	r4, r4, ip
	ldr	r10, [sp, #4]
	mov	r1, r1, asr #1
	strb	r1, [r2], #1
	rsb	ip, lr, r4
	str	r2, [sp, #72]
	ldr	r2, [sp, #68]
	ldr	r4, [sp, #8]
	add	r6, r10, fp
	add	ip, ip, #16
	ldr	fp, [sp, #24]
	ldrb	r0, [r2]	@ zero_extendqisi2
	ldrb	r1, [r3, ip, asr #5]	@ zero_extendqisi2
	mov	r7, r9
	ldr	r9, [sp, #16]
	add	r5, r4, fp
	sub	r6, r6, r6, asl #2
	add	lr, r7, r9
	mov	r6, r6, asl #1
	add	r1, r0, r1
	add	r5, r5, r5, asl #2
	add	r5, r6, r5, asl #2
	add	lr, lr, lr, asl #1
	mov	r6, r8
	add	r1, r1, #1
	add	ip, r6, r9
	add	r5, r5, lr
	mov	r1, r1, asr #1
	strb	r1, [r2], #1
	rsb	lr, ip, r5
	str	r2, [sp, #68]
	ldr	r2, [sp, #64]
	ldr	r6, [sp, #12]
	mov	r8, r9
	add	lr, lr, #16
	ldrb	r0, [r2]	@ zero_extendqisi2
	ldrb	r1, [r3, lr, asr #5]	@ zero_extendqisi2
	mov	r9, r4
	add	r4, r4, r8
	mov	r8, r10
	ldr	r10, [sp, #16]
	add	ip, fp, r6
	sub	r4, r4, r4, asl #2
	mov	r4, r4, asl #1
	add	r1, r0, r1
	add	ip, ip, ip, asl #2
	add	r5, r8, r10
	add	ip, r4, ip, asl #2
	add	r5, r5, r5, asl #1
	add	r1, r1, #1
	add	lr, r7, r6
	mov	r1, r1, asr #1
	add	ip, ip, r5
	strb	r1, [r2], #1
	rsb	ip, lr, ip
	str	r2, [sp, #64]
	ldr	r2, [sp, #60]
	add	ip, ip, #16
	ldrb	ip, [r3, ip, asr #5]	@ zero_extendqisi2
	ldrb	r1, [r2]	@ zero_extendqisi2
	mov	r4, r6
	add	r6, fp, r10
	mov	r0, r4
	add	r7, r4, r10
	sub	r6, r6, r6, asl #2
	add	r1, r1, ip
	add	r0, r9, r0
	add	r7, r7, r7, asl #2
	mov	r6, r6, asl #1
	add	r0, r0, r0, asl #1
	add	r6, r6, r7, asl #2
	add	r1, r1, #1
	add	r6, r6, r0
	mov	r1, r1, asr #1
	add	r0, r8, fp
	strb	r1, [r2], #1
	rsb	r6, r0, r6
	str	r2, [sp, #60]
	ldr	r2, [sp, #56]
	add	r6, r6, #16
	ldrb	r0, [r3, r6, asr #5]	@ zero_extendqisi2
	ldrb	r1, [r2]	@ zero_extendqisi2
	ldr	ip, [sp]
	add	r1, r1, r0
.LBE374:
	.loc 5 697 0 discriminator 1
	ldr	r0, [sp, #108]
.LBB375:
	.loc 5 697 0 discriminator 3
	add	ip, ip, #1
	add	r1, r1, #1
	mov	r1, r1, asr #1
.LBE375:
	.loc 5 697 0 discriminator 1
	cmp	ip, r0
.LBB376:
	.loc 5 697 0 discriminator 3
	strb	r1, [r2], #1
	mov	lr, r10
	str	ip, [sp]
.LVL523:
	str	r2, [sp, #56]
.LVL524:
.LBE376:
	.loc 5 697 0 discriminator 1
	bne	.L155
	.loc 5 697 0
	add	sp, sp, #116
	.cfi_def_cfa_offset 36
	@ sp needed
	ldmfd	sp!, {r4, r5, r6, r7, r8, r9, r10, fp, pc}
.L159:
	.align	2
.L158:
	.word	ff_crop_tab(GOT_PREL)+(.-(.LPIC29+8))
	.cfi_endproc
.LFE273:
	.size	avg_mpeg4_qpel16_v_lowpass.constprop.1, .-avg_mpeg4_qpel16_v_lowpass.constprop.1
	.align	2
	.type	avg_qpel16_mc22_c, %function
avg_qpel16_mc22_c:
.LFB239:
	.loc 5 697 0 is_stmt 1
	.cfi_startproc
	@ args = 0, pretend = 0, frame = 272
	@ frame_needed = 0, uses_anonymous_args = 0
.LVL525:
	stmfd	sp!, {r4, r5, r6, lr}
	.cfi_def_cfa_offset 16
	.cfi_offset 4, -16
	.cfi_offset 5, -12
	.cfi_offset 6, -8
	.cfi_offset 14, -4
	sub	sp, sp, #280
	.cfi_def_cfa_offset 296
	.loc 5 697 0
	mov	r5, r2
	add	r4, sp, #8
	mov	r2, #17
.LVL526:
	mov	r6, r0
	mov	r3, r5
	mov	r0, r4
.LVL527:
	str	r2, [sp]
	mov	r2, #16
	bl	put_mpeg4_qpel16_h_lowpass(PLT)
.LVL528:
	.loc 5 697 0 is_stmt 0 discriminator 1
	mov	r0, r6
	mov	r1, r4
	mov	r2, r5
	bl	avg_mpeg4_qpel16_v_lowpass.constprop.1(PLT)
.LVL529:
	.loc 5 697 0
	add	sp, sp, #280
	.cfi_def_cfa_offset 16
	@ sp needed
	ldmfd	sp!, {r4, r5, r6, pc}
	.cfi_endproc
.LFE239:
	.size	avg_qpel16_mc22_c, .-avg_qpel16_mc22_c
	.align	2
	.type	avg_qpel16_mc20_c, %function
avg_qpel16_mc20_c:
.LFB220:
	.loc 5 697 0 is_stmt 1
	.cfi_startproc
	@ args = 0, pretend = 0, frame = 0
	@ frame_needed = 0, uses_anonymous_args = 0
.LVL530:
	stmfd	sp!, {r4, r5, r6, r7, r8, r9, r10, fp, lr}
	.cfi_def_cfa_offset 36
	.cfi_offset 4, -36
	.cfi_offset 5, -32
	.cfi_offset 6, -28
	.cfi_offset 7, -24
	.cfi_offset 8, -20
	.cfi_offset 9, -16
	.cfi_offset 10, -12
	.cfi_offset 11, -8
	.cfi_offset 14, -4
	.loc 5 697 0
	ldr	r6, .L166
	mov	r3, r1
.LPIC31:
	ldr	r6, [pc, r6]		@ tls_load_dot_plus_eight
.LVL531:
	mov	ip, r0
.LBB379:
.LBB380:
	.loc 5 697 0 is_stmt 0 discriminator 3
	add	r6, r6, #1024
.LBE380:
.LBE379:
	.loc 5 697 0
	mov	r7, #0
	mov	r8, #16
.LVL532:
.L163:
.LBB382:
.LBB381:
	.loc 5 697 0 discriminator 3
	ldrb	r10, [r3, #2]	@ zero_extendqisi2
	ldrb	fp, [r1, r7]	@ zero_extendqisi2
	ldrb	r9, [r3, #1]	@ zero_extendqisi2
	ldrb	r4, [r3, #3]	@ zero_extendqisi2
	add	r5, fp, r10
	sub	r5, r5, r5, asl #2
	add	fp, fp, r9
	mov	lr, r5, asl #1
	add	r9, r9, r4
	add	r5, fp, fp, asl #2
	ldrb	fp, [r3, #4]	@ zero_extendqisi2
	add	r5, lr, r5, asl #2
	add	r9, r9, r9, asl #1
	add	r4, r5, r9
	add	lr, r10, fp
	rsb	lr, lr, r4
	add	lr, lr, #16
	ldrb	r4, [r6, lr, asr #5]	@ zero_extendqisi2
	ldrb	lr, [r0, r7]	@ zero_extendqisi2
	.loc 5 697 0 discriminator 1
	subs	r8, r8, #1
	.loc 5 697 0 discriminator 3
	add	lr, lr, r4
	add	lr, lr, #1
	mov	lr, lr, asr #1
	strb	lr, [r0, r7]
	ldrb	r9, [r1, r7]	@ zero_extendqisi2
	ldrb	fp, [r3, #3]	@ zero_extendqisi2
	ldrb	r10, [r3, #1]	@ zero_extendqisi2
	ldrb	r5, [r3, #2]	@ zero_extendqisi2
	ldrb	r4, [r3, #4]	@ zero_extendqisi2
	add	fp, r9, fp
	sub	fp, fp, fp, asl #2
	add	r5, r10, r5
	mov	lr, fp, asl #1
	add	r9, r9, r4
	ldrb	fp, [r3, #5]	@ zero_extendqisi2
	add	r5, r5, r5, asl #2
	add	r5, lr, r5, asl #2
	add	r9, r9, r9, asl #1
	add	r4, r5, r9
	add	lr, r10, fp
	rsb	lr, lr, r4
	add	lr, lr, #16
	ldrb	r4, [r6, lr, asr #5]	@ zero_extendqisi2
	ldrb	lr, [ip, #1]	@ zero_extendqisi2
	ldrb	r10, [ip, #2]	@ zero_extendqisi2
	add	lr, lr, r4
	add	lr, lr, #1
	mov	lr, lr, asr #1
	strb	lr, [ip, #1]
	ldrb	r4, [r3, #1]	@ zero_extendqisi2
	ldrb	r9, [r3, #4]	@ zero_extendqisi2
	ldrb	lr, [r3, #2]	@ zero_extendqisi2
	ldrb	r5, [r3, #3]	@ zero_extendqisi2
	ldrb	fp, [r1, r7]	@ zero_extendqisi2
	add	r9, r4, r9
	ldrb	r4, [r3, #5]	@ zero_extendqisi2
	add	r5, lr, r5
	sub	r9, r9, r9, asl #2
	ldrb	lr, [r3, #6]	@ zero_extendqisi2
	mov	r9, r9, asl #1
	add	r4, fp, r4
	add	r5, r5, r5, asl #2
	add	r5, r9, r5, asl #2
	add	r4, r4, r4, asl #1
	add	r4, r5, r4
	add	lr, fp, lr
	rsb	lr, lr, r4
	add	lr, lr, #16
	ldrb	lr, [r6, lr, asr #5]	@ zero_extendqisi2
	ldrb	r9, [ip, #3]	@ zero_extendqisi2
	add	r10, r10, lr
	add	r10, r10, #1
	mov	r10, r10, asr #1
	strb	r10, [ip, #2]
	ldrb	r4, [r3, #2]	@ zero_extendqisi2
	ldrb	r10, [r3, #5]	@ zero_extendqisi2
	ldrb	lr, [r3, #3]	@ zero_extendqisi2
	ldrb	r5, [r3, #4]	@ zero_extendqisi2
	add	r10, r4, r10
	ldrb	r4, [r3, #1]	@ zero_extendqisi2
	ldrb	fp, [r3, #6]	@ zero_extendqisi2
	add	r5, lr, r5
	sub	r10, r10, r10, asl #2
	ldrb	lr, [r3, #7]	@ zero_extendqisi2
	mov	r10, r10, asl #1
	add	r4, r4, fp
	add	r5, r5, r5, asl #2
	ldrb	fp, [r1, r7]	@ zero_extendqisi2
	add	r5, r10, r5, asl #2
	add	r4, r4, r4, asl #1
	add	r4, r5, r4
	add	lr, fp, lr
	rsb	lr, lr, r4
	add	lr, lr, #16
	ldrb	lr, [r6, lr, asr #5]	@ zero_extendqisi2
	ldrb	r10, [ip, #4]	@ zero_extendqisi2
	add	r9, r9, lr
	add	r9, r9, #1
	mov	r9, r9, asr #1
	strb	r9, [ip, #3]
	ldrb	r4, [r3, #3]	@ zero_extendqisi2
	ldrb	r9, [r3, #6]	@ zero_extendqisi2
	ldrb	lr, [r3, #4]	@ zero_extendqisi2
	ldrb	r5, [r3, #5]	@ zero_extendqisi2
	ldrb	fp, [r3, #7]	@ zero_extendqisi2
	add	r9, r4, r9
	ldrb	r4, [r3, #2]	@ zero_extendqisi2
	add	r5, lr, r5
	sub	r9, r9, r9, asl #2
	ldrb	lr, [r3, #8]	@ zero_extendqisi2
	mov	r9, r9, asl #1
	add	r4, r4, fp
	add	r5, r5, r5, asl #2
	ldrb	fp, [r3, #1]	@ zero_extendqisi2
	add	r5, r9, r5, asl #2
	add	r4, r4, r4, asl #1
	add	r4, r5, r4
	add	lr, fp, lr
	rsb	lr, lr, r4
	add	lr, lr, #16
	ldrb	lr, [r6, lr, asr #5]	@ zero_extendqisi2
	ldrb	r9, [ip, #5]	@ zero_extendqisi2
	add	r10, r10, lr
	add	r10, r10, #1
	mov	r10, r10, asr #1
	strb	r10, [ip, #4]
	ldrb	r4, [r3, #4]	@ zero_extendqisi2
	ldrb	r10, [r3, #7]	@ zero_extendqisi2
	ldrb	lr, [r3, #5]	@ zero_extendqisi2
	ldrb	r5, [r3, #6]	@ zero_extendqisi2
	ldrb	fp, [r3, #8]	@ zero_extendqisi2
	add	r10, r4, r10
	ldrb	r4, [r3, #3]	@ zero_extendqisi2
	add	r5, lr, r5
	sub	r10, r10, r10, asl #2
	ldrb	lr, [r3, #9]	@ zero_extendqisi2
	mov	r10, r10, asl #1
	add	r4, r4, fp
	add	r5, r5, r5, asl #2
	ldrb	fp, [r3, #2]	@ zero_extendqisi2
	add	r5, r10, r5, asl #2
	add	r4, r4, r4, asl #1
	add	r4, r5, r4
	add	lr, fp, lr
	rsb	lr, lr, r4
	add	lr, lr, #16
	ldrb	lr, [r6, lr, asr #5]	@ zero_extendqisi2
	ldrb	r10, [ip, #6]	@ zero_extendqisi2
	add	r9, r9, lr
	add	r9, r9, #1
	mov	r9, r9, asr #1
	strb	r9, [ip, #5]
	ldrb	r4, [r3, #5]	@ zero_extendqisi2
	ldrb	r9, [r3, #8]	@ zero_extendqisi2
	ldrb	lr, [r3, #6]	@ zero_extendqisi2
	ldrb	r5, [r3, #7]	@ zero_extendqisi2
	add	r9, r4, r9
	ldrb	r4, [r3, #4]	@ zero_extendqisi2
	ldrb	fp, [r3, #9]	@ zero_extendqisi2
	add	r5, lr, r5
	sub	r9, r9, r9, asl #2
	ldrb	lr, [r3, #10]	@ zero_extendqisi2
	mov	r9, r9, asl #1
	add	r4, r4, fp
	add	r5, r5, r5, asl #2
	ldrb	fp, [r3, #3]	@ zero_extendqisi2
	add	r5, r9, r5, asl #2
	add	r4, r4, r4, asl #1
	add	r4, r5, r4
	add	lr, fp, lr
	rsb	lr, lr, r4
	add	lr, lr, #16
	ldrb	lr, [r6, lr, asr #5]	@ zero_extendqisi2
	ldrb	r9, [ip, #7]	@ zero_extendqisi2
	add	r10, r10, lr
	add	r10, r10, #1
	mov	r10, r10, asr #1
	strb	r10, [ip, #6]
	ldrb	r4, [r3, #6]	@ zero_extendqisi2
	ldrb	r10, [r3, #9]	@ zero_extendqisi2
	ldrb	lr, [r3, #7]	@ zero_extendqisi2
	ldrb	r5, [r3, #8]	@ zero_extendqisi2
	ldrb	fp, [r3, #10]	@ zero_extendqisi2
	add	r10, r4, r10
	ldrb	r4, [r3, #5]	@ zero_extendqisi2
	add	r5, lr, r5
	sub	r10, r10, r10, asl #2
	ldrb	lr, [r3, #11]	@ zero_extendqisi2
	mov	r10, r10, asl #1
	add	r4, r4, fp
	add	r5, r5, r5, asl #2
	ldrb	fp, [r3, #4]	@ zero_extendqisi2
	add	r5, r10, r5, asl #2
	add	r4, r4, r4, asl #1
	add	r4, r5, r4
	add	lr, fp, lr
	rsb	lr, lr, r4
	add	lr, lr, #16
	ldrb	lr, [r6, lr, asr #5]	@ zero_extendqisi2
	ldrb	r10, [ip, #8]	@ zero_extendqisi2
	add	r9, r9, lr
	add	r9, r9, #1
	mov	r9, r9, asr #1
	strb	r9, [ip, #7]
	ldrb	r4, [r3, #7]	@ zero_extendqisi2
	ldrb	r9, [r3, #10]	@ zero_extendqisi2
	ldrb	lr, [r3, #8]	@ zero_extendqisi2
	ldrb	r5, [r3, #9]	@ zero_extendqisi2
	ldrb	fp, [r3, #11]	@ zero_extendqisi2
	add	r9, r4, r9
	ldrb	r4, [r3, #6]	@ zero_extendqisi2
	add	r5, lr, r5
	sub	r9, r9, r9, asl #2
	ldrb	lr, [r3, #12]	@ zero_extendqisi2
	mov	r9, r9, asl #1
	add	r4, r4, fp
	add	r5, r5, r5, asl #2
	ldrb	fp, [r3, #5]	@ zero_extendqisi2
	add	r5, r9, r5, asl #2
	add	r4, r4, r4, asl #1
	add	r4, r5, r4
	add	lr, fp, lr
	rsb	lr, lr, r4
	add	lr, lr, #16
	ldrb	lr, [r6, lr, asr #5]	@ zero_extendqisi2
	ldrb	r9, [ip, #9]	@ zero_extendqisi2
	add	r10, r10, lr
	add	r10, r10, #1
	mov	r10, r10, asr #1
	strb	r10, [ip, #8]
	ldrb	r4, [r3, #8]	@ zero_extendqisi2
	ldrb	r10, [r3, #11]	@ zero_extendqisi2
	ldrb	lr, [r3, #9]	@ zero_extendqisi2
	ldrb	r5, [r3, #10]	@ zero_extendqisi2
	add	r10, r4, r10
	ldrb	r4, [r3, #7]	@ zero_extendqisi2
	ldrb	fp, [r3, #12]	@ zero_extendqisi2
	add	r5, lr, r5
	sub	r10, r10, r10, asl #2
	ldrb	lr, [r3, #13]	@ zero_extendqisi2
	mov	r10, r10, asl #1
	add	r4, r4, fp
	add	r5, r5, r5, asl #2
	ldrb	fp, [r3, #6]	@ zero_extendqisi2
	add	r5, r10, r5, asl #2
	add	r4, r4, r4, asl #1
	add	r4, r5, r4
	add	lr, fp, lr
	rsb	lr, lr, r4
	add	lr, lr, #16
	ldrb	lr, [r6, lr, asr #5]	@ zero_extendqisi2
	ldrb	r10, [ip, #10]	@ zero_extendqisi2
	add	r9, r9, lr
	add	r9, r9, #1
	mov	r9, r9, asr #1
	strb	r9, [ip, #9]
	ldrb	r4, [r3, #9]	@ zero_extendqisi2
	ldrb	r9, [r3, #12]	@ zero_extendqisi2
	ldrb	lr, [r3, #10]	@ zero_extendqisi2
	ldrb	r5, [r3, #11]	@ zero_extendqisi2
	ldrb	fp, [r3, #13]	@ zero_extendqisi2
	add	r9, r4, r9
	ldrb	r4, [r3, #8]	@ zero_extendqisi2
	add	r5, lr, r5
	sub	r9, r9, r9, asl #2
	ldrb	lr, [r3, #14]	@ zero_extendqisi2
	mov	r9, r9, asl #1
	add	r4, r4, fp
	add	r5, r5, r5, asl #2
	ldrb	fp, [r3, #7]	@ zero_extendqisi2
	add	r5, r9, r5, asl #2
	add	r4, r4, r4, asl #1
	add	r4, r5, r4
	add	lr, fp, lr
	rsb	lr, lr, r4
	add	lr, lr, #16
	ldrb	lr, [r6, lr, asr #5]	@ zero_extendqisi2
	ldrb	r9, [ip, #11]	@ zero_extendqisi2
	add	r10, r10, lr
	add	r10, r10, #1
	mov	r10, r10, asr #1
	strb	r10, [ip, #10]
	ldrb	r4, [r3, #10]	@ zero_extendqisi2
	ldrb	r10, [r3, #13]	@ zero_extendqisi2
	ldrb	lr, [r3, #11]	@ zero_extendqisi2
	ldrb	r5, [r3, #12]	@ zero_extendqisi2
	ldrb	fp, [r3, #14]	@ zero_extendqisi2
	add	r10, r4, r10
	ldrb	r4, [r3, #9]	@ zero_extendqisi2
	add	r5, lr, r5
	sub	r10, r10, r10, asl #2
	ldrb	lr, [r3, #15]	@ zero_extendqisi2
	mov	r10, r10, asl #1
	add	r4, r4, fp
	add	r5, r5, r5, asl #2
	ldrb	fp, [r3, #8]	@ zero_extendqisi2
	add	r5, r10, r5, asl #2
	add	r4, r4, r4, asl #1
	add	r4, r5, r4
	add	lr, fp, lr
	rsb	lr, lr, r4
	add	lr, lr, #16
	ldrb	lr, [r6, lr, asr #5]	@ zero_extendqisi2
	ldrb	r10, [ip, #12]	@ zero_extendqisi2
	add	r9, r9, lr
	add	r9, r9, #1
	mov	r9, r9, asr #1
	strb	r9, [ip, #11]
	ldrb	r4, [r3, #11]	@ zero_extendqisi2
	ldrb	r9, [r3, #14]	@ zero_extendqisi2
	ldrb	lr, [r3, #12]	@ zero_extendqisi2
	ldrb	r5, [r3, #13]	@ zero_extendqisi2
	add	r9, r4, r9
	ldrb	r4, [r3, #10]	@ zero_extendqisi2
	ldrb	fp, [r3, #15]	@ zero_extendqisi2
	add	r5, lr, r5
	sub	r9, r9, r9, asl #2
	ldrb	lr, [r3, #16]	@ zero_extendqisi2
	mov	r9, r9, asl #1
	add	r4, r4, fp
	add	r5, r5, r5, asl #2
	ldrb	fp, [r3, #9]	@ zero_extendqisi2
	add	r5, r9, r5, asl #2
	add	r4, r4, r4, asl #1
	add	r4, r5, r4
	add	lr, fp, lr
	rsb	lr, lr, r4
	add	lr, lr, #16
	ldrb	lr, [r6, lr, asr #5]	@ zero_extendqisi2
	ldrb	r9, [ip, #13]	@ zero_extendqisi2
	add	r10, r10, lr
	add	r10, r10, #1
	mov	r10, r10, asr #1
	strb	r10, [ip, #12]
	ldrb	r4, [r3, #12]	@ zero_extendqisi2
	ldrb	r10, [r3, #15]	@ zero_extendqisi2
	ldrb	lr, [r3, #13]	@ zero_extendqisi2
	ldrb	r5, [r3, #14]	@ zero_extendqisi2
	ldrb	fp, [r3, #16]	@ zero_extendqisi2
	add	r10, r4, r10
	ldrb	r4, [r3, #11]	@ zero_extendqisi2
	add	r5, lr, r5
	sub	r10, r10, r10, asl #2
	ldrb	lr, [r3, #10]	@ zero_extendqisi2
	mov	r10, r10, asl #1
	add	r4, r4, fp
	add	r5, r5, r5, asl #2
	add	r5, r10, r5, asl #2
	add	r4, r4, r4, asl #1
	add	r4, r5, r4
	add	lr, fp, lr
	rsb	lr, lr, r4
	add	lr, lr, #16
	ldrb	lr, [r6, lr, asr #5]	@ zero_extendqisi2
	ldrb	r10, [ip, #14]	@ zero_extendqisi2
	add	r9, r9, lr
	add	r9, r9, #1
	mov	r9, r9, asr #1
	strb	r9, [ip, #13]
	ldrb	lr, [r3, #16]	@ zero_extendqisi2
	ldrb	r9, [r3, #13]	@ zero_extendqisi2
	ldrb	fp, [r3, #15]	@ zero_extendqisi2
	ldrb	r5, [r3, #14]	@ zero_extendqisi2
	ldrb	r4, [r3, #12]	@ zero_extendqisi2
	add	r9, r9, lr
	add	r5, r5, fp
	sub	r9, r9, r9, asl #2
	mov	r9, r9, asl #1
	add	r4, lr, r4
	add	r5, r5, r5, asl #2
	ldrb	lr, [r3, #11]	@ zero_extendqisi2
	add	r5, r9, r5, asl #2
	add	r4, r4, r4, asl #1
	add	r4, r5, r4
	add	lr, fp, lr
	rsb	lr, lr, r4
	add	lr, lr, #16
	ldrb	lr, [r6, lr, asr #5]	@ zero_extendqisi2
	ldrb	r9, [ip, #15]	@ zero_extendqisi2
	add	r10, r10, lr
	add	r10, r10, #1
	mov	r10, r10, asr #1
	strb	r10, [ip, #14]
	ldrb	r5, [r3, #16]	@ zero_extendqisi2
	ldrb	fp, [r3, #14]	@ zero_extendqisi2
	ldrb	lr, [r3, #15]	@ zero_extendqisi2
	ldrb	r4, [r3, #13]	@ zero_extendqisi2
	add	r10, r5, fp
	sub	r10, r10, r10, asl #2
	add	r5, lr, r5
	add	r4, lr, r4
	mov	r10, r10, asl #1
	ldrb	lr, [r3, #12]	@ zero_extendqisi2
	add	r5, r5, r5, asl #2
	add	r5, r10, r5, asl #2
	add	r4, r4, r4, asl #1
	add	r4, r5, r4
	add	lr, fp, lr
	rsb	lr, lr, r4
	add	lr, lr, #16
	ldrb	lr, [r6, lr, asr #5]	@ zero_extendqisi2
	add	r7, r7, r2
	add	lr, r9, lr
	add	lr, lr, #1
	mov	lr, lr, asr #1
	strb	lr, [ip, #15]
	add	r3, r3, r2
.LVL533:
	add	ip, ip, r2
.LVL534:
	.loc 5 697 0 discriminator 1
	bne	.L163
.LBE381:
.LBE382:
	.loc 5 697 0
	ldmfd	sp!, {r4, r5, r6, r7, r8, r9, r10, fp, pc}
.L167:
	.align	2
.L166:
	.word	ff_crop_tab(GOT_PREL)+(.-(.LPIC31+8))
	.cfi_endproc
.LFE220:
	.size	avg_qpel16_mc20_c, .-avg_qpel16_mc20_c
	.align	2
	.type	avg_mpeg4_qpel8_v_lowpass.constprop.3, %function
avg_mpeg4_qpel8_v_lowpass.constprop.3:
.LFB271:
	.loc 5 697 0 is_stmt 1
	.cfi_startproc
	@ args = 0, pretend = 0, frame = 64
	@ frame_needed = 0, uses_anonymous_args = 0
.LVL535:
	stmfd	sp!, {r4, r5, r6, r7, r8, r9, r10, fp, lr}
	.cfi_def_cfa_offset 36
	.cfi_offset 4, -36
	.cfi_offset 5, -32
	.cfi_offset 6, -28
	.cfi_offset 7, -24
	.cfi_offset 8, -20
	.cfi_offset 9, -16
	.cfi_offset 10, -12
	.cfi_offset 11, -8
	.cfi_offset 14, -4
	add	r3, r0, r2
	sub	sp, sp, #68
	.cfi_def_cfa_offset 104
	str	r3, [sp, #44]
	add	r3, r3, r2
	str	r3, [sp, #40]
	add	r3, r3, r2
	mov	ip, r3
	str	r3, [sp, #36]
	.loc 5 697 0
	ldr	r3, .L172
	add	ip, ip, r2
.LPIC33:
	ldr	r3, [pc, r3]		@ tls_load_dot_plus_eight
	str	ip, [sp, #32]
.LBB383:
	.loc 5 697 0 is_stmt 0 discriminator 3
	add	r3, r3, #1024
	str	r3, [sp, #56]
	add	r3, r1, #15
	add	ip, ip, r2
	str	r3, [sp, #8]
	add	r3, r1, #23
	str	ip, [sp, #28]
	str	r3, [sp, #12]
	add	ip, ip, r2
	add	r3, r1, #31
	sub	r0, r0, #1
.LVL536:
	add	r2, ip, r2
.LVL537:
	str	r3, [sp, #16]
	add	r3, r1, #8
	str	r0, [sp, #48]
	str	ip, [sp, #24]
	str	r2, [sp, #20]
.LBE383:
	.loc 5 697 0
	str	r0, [sp, #52]
	str	r3, [sp, #60]
.LVL538:
.L169:
.LBB384:
	.loc 5 697 0 discriminator 3
	ldr	r3, [sp, #8]
	ldrb	r6, [r1]	@ zero_extendqisi2
.LVL539:
	ldrb	r4, [r3, #1]!	@ zero_extendqisi2
	str	r3, [sp, #8]
	ldr	r3, [sp, #12]
	ldrb	r5, [r1, #8]	@ zero_extendqisi2
.LVL540:
	ldrb	lr, [r3, #1]!	@ zero_extendqisi2
	ldr	r7, [sp, #16]
	add	ip, r6, r4
	add	r0, r6, r5
	sub	ip, ip, ip, asl #2
	add	r2, r5, lr
	str	r3, [sp, #12]
.LVL541:
	mov	ip, ip, asl #1
	ldrb	r3, [r7, #1]!	@ zero_extendqisi2
	add	r0, r0, r0, asl #2
	add	r0, ip, r0, asl #2
	add	r2, r2, r2, asl #1
	add	r0, r0, r2
	add	ip, r4, r3
	str	r7, [sp, #16]
.LVL542:
	rsb	ip, ip, r0
	ldr	r7, [sp, #56]
	add	r0, r6, lr
	ldr	r8, [sp, #52]
	add	r2, r5, r4
	add	ip, ip, #16
	sub	r0, r0, r0, asl #2
	ldrb	ip, [r7, ip, asr #5]	@ zero_extendqisi2
	mov	r0, r0, asl #1
	add	r7, r6, r3
	add	r2, r2, r2, asl #2
	ldrb	r10, [r8, #1]!	@ zero_extendqisi2
	add	r2, r0, r2, asl #2
	add	r7, r7, r7, asl #1
	add	fp, r2, r7
	ldrb	r2, [r1, #48]	@ zero_extendqisi2
	str	r2, [sp]
	str	r8, [sp, #52]
	ldrb	r2, [r1, #56]	@ zero_extendqisi2
	ldrb	r8, [r1, #40]	@ zero_extendqisi2
.LVL543:
	add	r10, r10, ip
	str	r2, [sp, #4]
.LVL544:
	add	r10, r10, #1
	ldr	r2, [sp, #48]
	add	r9, r5, r8
	mov	r10, r10, asr #1
	ldrb	r0, [r1, #64]	@ zero_extendqisi2
.LVL545:
	ldr	r7, [sp, #56]
	strb	r10, [r2, #1]!
	rsb	fp, r9, fp
	str	r2, [sp, #48]
	ldr	r2, [sp, #44]
	add	r9, r5, r3
	add	fp, fp, #16
	ldrb	r10, [r2]	@ zero_extendqisi2
	ldrb	fp, [r7, fp, asr #5]	@ zero_extendqisi2
	add	ip, r4, lr
	sub	r9, r9, r9, asl #2
	mov	r9, r9, asl #1
	add	ip, ip, ip, asl #2
	add	ip, r9, ip, asl #2
	add	r10, r10, fp
	add	r9, r6, r8
	ldr	fp, [sp]
	add	r9, r9, r9, asl #1
	add	r9, ip, r9
	add	r10, r10, #1
	add	ip, r6, fp
	rsb	r9, ip, r9
	mov	r10, r10, asr #1
	add	ip, r4, r8
	strb	r10, [r2], #1
	sub	fp, ip, ip, asl #2
	str	r2, [sp, #44]
	add	ip, lr, r3
	ldr	r2, [sp, #40]
	mov	fp, fp, asl #1
	add	r9, r9, #16
	add	ip, ip, ip, asl #2
	ldrb	r10, [r2]	@ zero_extendqisi2
	add	ip, fp, ip, asl #2
	ldrb	r9, [r7, r9, asr #5]	@ zero_extendqisi2
	ldr	fp, [sp]
	add	r10, r10, r9
	add	fp, r5, fp
	ldr	r9, [sp, #4]
	add	fp, fp, fp, asl #1
	add	r10, r10, #1
	add	r6, r6, r9
.LVL546:
	add	fp, ip, fp
	mov	r10, r10, asr #1
	strb	r10, [r2], #1
	rsb	fp, r6, fp
	ldr	ip, [sp]
	str	r2, [sp, #40]
	ldr	r2, [sp, #36]
	add	fp, fp, #16
	ldrb	r6, [r7, fp, asr #5]	@ zero_extendqisi2
	add	ip, lr, ip
	ldrb	fp, [r2]	@ zero_extendqisi2
	ldr	r10, [sp, #4]
	sub	r9, ip, ip, asl #2
	add	ip, r3, r8
	mov	r9, r9, asl #1
	add	r10, r4, r10
	add	fp, fp, r6
	add	ip, ip, ip, asl #2
	add	ip, r9, ip, asl #2
	add	r10, r10, r10, asl #1
	ldr	r9, [sp, #4]
	add	fp, fp, #1
	add	ip, ip, r10
	add	r5, r5, r0
.LVL547:
	mov	fp, fp, asr #1
	strb	fp, [r2], #1
	rsb	r5, r5, ip
	str	r2, [sp, #36]
	add	ip, r3, r9
	ldr	r2, [sp, #32]
	sub	r6, ip, ip, asl #2
	add	r5, r5, #16
	ldr	ip, [sp]
	ldrb	r10, [r2]	@ zero_extendqisi2
	ldrb	r5, [r7, r5, asr #5]	@ zero_extendqisi2
	add	ip, r8, ip
	add	r9, lr, r0
	mov	r6, r6, asl #1
	add	r5, r10, r5
	add	ip, ip, ip, asl #2
	add	ip, r6, ip, asl #2
	add	r9, r9, r9, asl #1
	add	r5, r5, #1
	add	ip, ip, r9
	mov	r6, r5, asr #1
	add	r4, r4, r0
.LVL548:
	strb	r6, [r2], #1
	rsb	r4, r4, ip
	str	r2, [sp, #32]
	ldr	r2, [sp, #28]
	ldr	r9, [sp, #4]
	ldr	fp, [sp]
	add	r4, r4, #16
	ldrb	r6, [r7, r4, asr #5]	@ zero_extendqisi2
	add	r10, r8, r0
	ldrb	r4, [r2]	@ zero_extendqisi2
	add	r5, fp, r9
	sub	r10, r10, r10, asl #2
	add	ip, r3, r0
	mov	r10, r10, asl #1
	add	r5, r5, r5, asl #2
	add	r4, r4, r6
	add	r5, r10, r5, asl #2
	add	ip, ip, ip, asl #1
	add	r4, r4, #1
	add	lr, lr, r9
.LVL549:
	add	r5, r5, ip
	mov	r4, r4, asr #1
	strb	r4, [r2], #1
	mov	r10, r9
	ldr	r4, [sp, #24]
	rsb	r5, lr, r5
	add	r9, fp, r0
	add	r5, r5, #16
	add	r0, r10, r0
.LVL550:
	sub	r9, r9, r9, asl #2
	ldrb	lr, [r7, r5, asr #5]	@ zero_extendqisi2
	ldrb	ip, [r4]	@ zero_extendqisi2
	str	r2, [sp, #28]
	add	r0, r0, r0, asl #2
	add	r2, r8, r10
	mov	r9, r9, asl #1
	add	r0, r9, r0, asl #2
	add	r2, r2, r2, asl #1
	add	r2, r0, r2
	add	r3, r3, fp
.LVL551:
	add	ip, ip, lr
	rsb	r2, r3, r2
	add	ip, ip, #1
	mov	r3, r4
	add	r2, r2, #16
	mov	ip, ip, asr #1
	strb	ip, [r3], #1
	ldrb	r2, [r7, r2, asr #5]	@ zero_extendqisi2
	str	r3, [sp, #24]
	ldr	r0, [sp, #20]
	add	r1, r1, #1
.LVL552:
	ldrb	r3, [r0]	@ zero_extendqisi2
	add	r3, r3, r2
.LBE384:
	.loc 5 697 0 discriminator 1
	ldr	r2, [sp, #60]
.LBB385:
	.loc 5 697 0 discriminator 3
	add	r3, r3, #1
.LBE385:
	.loc 5 697 0 discriminator 1
	cmp	r1, r2
.LBB386:
	.loc 5 697 0 discriminator 3
	mov	r3, r3, asr #1
	mov	r2, r0
	strb	r3, [r2], #1
	str	r2, [sp, #20]
.LVL553:
.LBE386:
	.loc 5 697 0 discriminator 1
	bne	.L169
	.loc 5 697 0
	add	sp, sp, #68
	.cfi_def_cfa_offset 36
.LVL554:
	@ sp needed
	ldmfd	sp!, {r4, r5, r6, r7, r8, r9, r10, fp, pc}
.LVL555:
.L173:
	.align	2
.L172:
	.word	ff_crop_tab(GOT_PREL)+(.-(.LPIC33+8))
	.cfi_endproc
.LFE271:
	.size	avg_mpeg4_qpel8_v_lowpass.constprop.3, .-avg_mpeg4_qpel8_v_lowpass.constprop.3
	.align	2
	.type	avg_qpel8_mc22_c, %function
avg_qpel8_mc22_c:
.LFB218:
	.loc 5 697 0 is_stmt 1
	.cfi_startproc
	@ args = 0, pretend = 0, frame = 72
	@ frame_needed = 0, uses_anonymous_args = 0
.LVL556:
	stmfd	sp!, {r4, r5, r6, lr}
	.cfi_def_cfa_offset 16
	.cfi_offset 4, -16
	.cfi_offset 5, -12
	.cfi_offset 6, -8
	.cfi_offset 14, -4
	sub	sp, sp, #80
	.cfi_def_cfa_offset 96
	.loc 5 697 0
	mov	r5, r2
	add	r4, sp, #8
	mov	r2, #9
.LVL557:
	mov	r6, r0
	mov	r3, r5
	mov	r0, r4
.LVL558:
	str	r2, [sp]
	mov	r2, #8
	bl	put_mpeg4_qpel8_h_lowpass(PLT)
.LVL559:
	.loc 5 697 0 is_stmt 0 discriminator 1
	mov	r0, r6
	mov	r1, r4
	mov	r2, r5
	bl	avg_mpeg4_qpel8_v_lowpass.constprop.3(PLT)
.LVL560:
	.loc 5 697 0
	add	sp, sp, #80
	.cfi_def_cfa_offset 16
	@ sp needed
	ldmfd	sp!, {r4, r5, r6, pc}
	.cfi_endproc
.LFE218:
	.size	avg_qpel8_mc22_c, .-avg_qpel8_mc22_c
	.align	2
	.type	avg_qpel8_mc20_c, %function
avg_qpel8_mc20_c:
.LFB199:
	.loc 5 697 0 is_stmt 1
	.cfi_startproc
	@ args = 0, pretend = 0, frame = 0
	@ frame_needed = 0, uses_anonymous_args = 0
.LVL561:
	stmfd	sp!, {r4, r5, r6, r7, r8, r9, r10, fp, lr}
	.cfi_def_cfa_offset 36
	.cfi_offset 4, -36
	.cfi_offset 5, -32
	.cfi_offset 6, -28
	.cfi_offset 7, -24
	.cfi_offset 8, -20
	.cfi_offset 9, -16
	.cfi_offset 10, -12
	.cfi_offset 11, -8
	.cfi_offset 14, -4
	.loc 5 697 0
	ldr	r5, .L180
	add	r6, r1, #1
.LPIC35:
	ldr	r5, [pc, r5]		@ tls_load_dot_plus_eight
.LVL562:
	add	r7, r0, #1
.LBB389:
.LBB390:
	.loc 5 697 0 is_stmt 0 discriminator 3
	add	r5, r5, #1024
.LBE390:
.LBE389:
	.loc 5 697 0
	mov	r8, #8
.LVL563:
.L177:
.LBB392:
.LBB391:
	.loc 5 697 0 discriminator 3
	ldrb	r10, [r1, #2]	@ zero_extendqisi2
	ldrb	fp, [r6, #-1]	@ zero_extendqisi2
	ldrb	r9, [r1, #1]	@ zero_extendqisi2
	ldrb	r3, [r1, #3]	@ zero_extendqisi2
	add	lr, fp, r10
	sub	lr, lr, lr, asl #2
	add	fp, fp, r9
	mov	r4, lr, asl #1
	add	fp, fp, fp, asl #2
	add	r9, r9, r3
	ldrb	r3, [r1, #4]	@ zero_extendqisi2
	add	lr, r4, fp, asl #2
	add	r9, r9, r9, asl #1
	add	ip, lr, r9
	add	r3, r10, r3
	rsb	r3, r3, ip
	add	r3, r3, #16
	ldrb	ip, [r5, r3, asr #5]	@ zero_extendqisi2
	ldrb	r3, [r7, #-1]	@ zero_extendqisi2
	.loc 5 697 0 discriminator 1
	subs	r8, r8, #1
	.loc 5 697 0 discriminator 3
	add	r3, r3, ip
	add	r3, r3, #1
	mov	r3, r3, asr #1
	strb	r3, [r7, #-1]
	ldrb	r9, [r6, #-1]	@ zero_extendqisi2
	ldrb	lr, [r1, #3]	@ zero_extendqisi2
	ldrb	r10, [r1, #1]	@ zero_extendqisi2
	ldrb	fp, [r1, #2]	@ zero_extendqisi2
	ldrb	r3, [r1, #4]	@ zero_extendqisi2
	add	lr, r9, lr
	sub	lr, lr, lr, asl #2
	add	fp, r10, fp
	mov	r4, lr, asl #1
	add	fp, fp, fp, asl #2
	add	r9, r9, r3
	ldrb	r3, [r1, #5]	@ zero_extendqisi2
	add	lr, r4, fp, asl #2
	add	r9, r9, r9, asl #1
	add	ip, lr, r9
	add	r3, r10, r3
	rsb	r3, r3, ip
	add	r3, r3, #16
	ldrb	ip, [r5, r3, asr #5]	@ zero_extendqisi2
	ldrb	r3, [r0, #1]	@ zero_extendqisi2
	ldrb	r10, [r0, #2]	@ zero_extendqisi2
	add	r3, r3, ip
	add	r3, r3, #1
	mov	r3, r3, asr #1
	strb	r3, [r0, #1]
	ldrb	lr, [r1, #1]	@ zero_extendqisi2
	ldrb	r4, [r1, #4]	@ zero_extendqisi2
	ldrb	r3, [r1, #2]	@ zero_extendqisi2
	ldrb	ip, [r1, #3]	@ zero_extendqisi2
	ldrb	fp, [r6, #-1]	@ zero_extendqisi2
	ldrb	r9, [r1, #5]	@ zero_extendqisi2
	add	r4, lr, r4
	add	ip, r3, ip
	sub	r4, r4, r4, asl #2
	ldrb	r3, [r1, #6]	@ zero_extendqisi2
	mov	r4, r4, asl #1
	add	ip, ip, ip, asl #2
	add	r9, fp, r9
	add	lr, r4, ip, asl #2
	add	r9, r9, r9, asl #1
	add	ip, lr, r9
	add	r3, fp, r3
	rsb	r3, r3, ip
	add	r3, r3, #16
	ldrb	r3, [r5, r3, asr #5]	@ zero_extendqisi2
	ldrb	r9, [r0, #3]	@ zero_extendqisi2
	add	r3, r10, r3
	add	r3, r3, #1
	mov	r3, r3, asr #1
	strb	r3, [r0, #2]
	ldrb	ip, [r1, #2]	@ zero_extendqisi2
	ldrb	r10, [r1, #5]	@ zero_extendqisi2
	ldrb	r3, [r1, #3]	@ zero_extendqisi2
	ldrb	lr, [r1, #4]	@ zero_extendqisi2
	ldrb	r4, [r1, #1]	@ zero_extendqisi2
	add	r10, ip, r10
	ldrb	fp, [r1, #6]	@ zero_extendqisi2
	sub	r10, r10, r10, asl #2
	add	lr, r3, lr
	add	r4, r4, fp
	mov	r3, r10, asl #1
	ldrb	fp, [r1, #7]	@ zero_extendqisi2
	ldrb	r10, [r6, #-1]	@ zero_extendqisi2
	add	lr, lr, lr, asl #2
	add	lr, r3, lr, asl #2
	add	r4, r4, r4, asl #1
	add	ip, lr, r4
	add	r3, r10, fp
	rsb	r3, r3, ip
	add	r3, r3, #16
	ldrb	r3, [r5, r3, asr #5]	@ zero_extendqisi2
	ldrb	r4, [r0, #4]	@ zero_extendqisi2
	add	r3, r9, r3
	add	r3, r3, #1
	mov	r3, r3, asr #1
	strb	r3, [r0, #3]
	ldrb	ip, [r1, #3]	@ zero_extendqisi2
	ldrb	r10, [r1, #6]	@ zero_extendqisi2
	ldrb	r3, [r1, #4]	@ zero_extendqisi2
	ldrb	lr, [r1, #5]	@ zero_extendqisi2
	ldrb	fp, [r1, #7]	@ zero_extendqisi2
	ldrb	r9, [r1, #2]	@ zero_extendqisi2
	add	r10, ip, r10
	sub	r10, r10, r10, asl #2
	add	lr, r3, lr
	add	r9, r9, fp
	mov	r3, r10, asl #1
	ldrb	fp, [r1, #8]	@ zero_extendqisi2
	ldrb	r10, [r1, #1]	@ zero_extendqisi2
	add	lr, lr, lr, asl #2
	add	lr, r3, lr, asl #2
	add	r9, r9, r9, asl #1
	add	ip, lr, r9
	add	r3, r10, fp
	rsb	r3, r3, ip
	add	r3, r3, #16
	ldrb	r3, [r5, r3, asr #5]	@ zero_extendqisi2
	ldrb	r9, [r0, #5]	@ zero_extendqisi2
	add	r3, r4, r3
	add	r3, r3, #1
	mov	r3, r3, asr #1
	strb	r3, [r0, #4]
	ldrb	lr, [r1, #4]	@ zero_extendqisi2
	ldrb	r4, [r1, #7]	@ zero_extendqisi2
	ldrb	r3, [r1, #5]	@ zero_extendqisi2
	ldrb	ip, [r1, #6]	@ zero_extendqisi2
	ldrb	fp, [r1, #8]	@ zero_extendqisi2
	ldrb	r10, [r1, #3]	@ zero_extendqisi2
	add	r4, lr, r4
	add	ip, r3, ip
	sub	r4, r4, r4, asl #2
	ldrb	r3, [r1, #2]	@ zero_extendqisi2
	mov	r4, r4, asl #1
	add	ip, ip, ip, asl #2
	add	r10, r10, fp
	add	lr, r4, ip, asl #2
	add	r10, r10, r10, asl #1
	add	ip, lr, r10
	add	r3, fp, r3
	rsb	r3, r3, ip
	add	r3, r3, #16
	ldrb	r3, [r5, r3, asr #5]	@ zero_extendqisi2
	ldrb	r4, [r0, #6]	@ zero_extendqisi2
	add	r3, r9, r3
	add	r3, r3, #1
	mov	r3, r3, asr #1
	strb	r3, [r0, #5]
	ldrb	r9, [r1, #8]	@ zero_extendqisi2
	ldrb	fp, [r1, #5]	@ zero_extendqisi2
	ldrb	r10, [r1, #7]	@ zero_extendqisi2
	ldrb	lr, [r1, #6]	@ zero_extendqisi2
	ldrb	ip, [r1, #4]	@ zero_extendqisi2
	add	fp, fp, r9
	sub	fp, fp, fp, asl #2
	add	lr, lr, r10
	mov	r3, fp, asl #1
	add	r9, r9, ip
	ldrb	fp, [r1, #3]	@ zero_extendqisi2
	add	lr, lr, lr, asl #2
	add	lr, r3, lr, asl #2
	add	r9, r9, r9, asl #1
	add	ip, lr, r9
	add	r3, r10, fp
	rsb	r3, r3, ip
	add	r3, r3, #16
	ldrb	r3, [r5, r3, asr #5]	@ zero_extendqisi2
	ldrb	r9, [r0, #7]	@ zero_extendqisi2
	add	r3, r4, r3
	add	r3, r3, #1
	mov	r3, r3, asr #1
	strb	r3, [r0, #6]
	ldrb	r3, [r1, #8]	@ zero_extendqisi2
	ldrb	fp, [r1, #6]	@ zero_extendqisi2
	ldrb	r10, [r1, #7]	@ zero_extendqisi2
	ldrb	ip, [r1, #5]	@ zero_extendqisi2
	add	lr, r3, fp
	sub	lr, lr, lr, asl #2
	add	r3, r10, r3
	mov	r4, lr, asl #1
	add	r10, r10, ip
	add	lr, r3, r3, asl #2
	ldrb	r3, [r1, #4]	@ zero_extendqisi2
	add	lr, r4, lr, asl #2
	add	r10, r10, r10, asl #1
	add	ip, lr, r10
	add	r3, fp, r3
	rsb	r3, r3, ip
	add	r3, r3, #16
	ldrb	r3, [r5, r3, asr #5]	@ zero_extendqisi2
	add	r7, r7, r2
	add	r3, r9, r3
	add	r3, r3, #1
	mov	r3, r3, asr #1
	strb	r3, [r0, #7]
	add	r6, r6, r2
	add	r1, r1, r2
.LVL564:
	add	r0, r0, r2
.LVL565:
	.loc 5 697 0 discriminator 1
	bne	.L177
.LBE391:
.LBE392:
	.loc 5 697 0
	ldmfd	sp!, {r4, r5, r6, r7, r8, r9, r10, fp, pc}
.L181:
	.align	2
.L180:
	.word	ff_crop_tab(GOT_PREL)+(.-(.LPIC35+8))
	.cfi_endproc
.LFE199:
	.size	avg_qpel8_mc20_c, .-avg_qpel8_mc20_c
	.align	2
	.type	put_no_rnd_mpeg4_qpel16_v_lowpass.constprop.5, %function
put_no_rnd_mpeg4_qpel16_v_lowpass.constprop.5:
.LFB269:
	.loc 5 696 0 is_stmt 1
	.cfi_startproc
	@ args = 0, pretend = 0, frame = 128
	@ frame_needed = 0, uses_anonymous_args = 0
.LVL566:
	ldr	r3, .L186
	stmfd	sp!, {r4, r5, r6, r7, r8, r9, r10, fp, lr}
	.cfi_def_cfa_offset 36
	.cfi_offset 4, -36
	.cfi_offset 5, -32
	.cfi_offset 6, -28
	.cfi_offset 7, -24
	.cfi_offset 8, -20
	.cfi_offset 9, -16
	.cfi_offset 10, -12
	.cfi_offset 11, -8
	.cfi_offset 14, -4
	mov	r6, r2, asl #2
	sub	sp, sp, #132
	.cfi_def_cfa_offset 168
.LVL567:
	mov	fp, r3
	mov	r9, r2, asl #4
	mov	r3, r2, asl #3
	add	r5, r6, r2
	str	r9, [sp, #4]
	add	r9, r3, r2
	str	r9, [sp, #16]
	mov	r4, r5, asl #1
	ldr	r9, [sp, #4]
	add	lr, r4, r2
	str	lr, [sp, #12]
	rsb	r9, r2, r9
	rsb	lr, r2, r3
	str	r9, [sp, #20]
	mov	r8, r2, asl #1
.LPIC37:
	ldr	r9, [pc, fp]		@ tls_load_dot_plus_eight
	.loc 5 696 0
	str	r0, [sp, #8]
.LVL568:
	sub	fp, lr, #1
	ldr	r0, [sp, #12]
	add	ip, r8, r2
	str	fp, [sp, #12]
	sub	r4, r4, #1
	ldr	fp, [sp, #16]
	add	r4, r1, r4
	str	r9, [sp, #24]
	sub	r9, r0, #1
	sub	r0, ip, #1
	mov	r7, ip, asl #2
	sub	fp, fp, #1
	add	ip, r1, ip, asl #1
	str	r4, [sp, #96]
	add	r4, r1, r0
	str	fp, [sp, #16]
	str	r4, [sp, #60]
	ldr	fp, [sp, #20]
	sub	r4, ip, #1
	ldr	ip, [sp, #12]
	add	lr, r1, lr, asl #1
	sub	fp, fp, #1
	str	r4, [sp, #112]
	add	r4, r1, ip
	ldr	ip, [sp, #16]
	str	fp, [sp, #20]
	sub	lr, lr, #1
	ldr	fp, [sp, #4]
	str	lr, [sp, #80]
	add	lr, r1, ip
	ldr	ip, [sp, #20]
	add	r10, r7, r2
	sub	r8, r8, #1
	sub	r5, r5, #1
	add	r8, r1, r8
	add	r5, r1, r5
	add	ip, r1, ip
	sub	r3, r3, #1
	sub	r10, r10, #1
	sub	r7, r7, #1
	sub	r6, r6, #1
	sub	fp, fp, #1
	str	r8, [sp, #56]
	add	r7, r1, r7
	add	r8, r1, r10
	add	r6, r1, r6
	str	r5, [sp, #68]
	str	lr, [sp, #100]
	add	r5, r1, r9
	add	lr, r1, r3
	str	ip, [sp, #76]
	sub	r2, r2, #1
.LVL569:
	add	ip, r1, fp
	add	r2, r1, r2
.LVL570:
	str	r8, [sp, #84]
	str	r7, [sp, #88]
	str	r6, [sp, #64]
	str	r5, [sp, #92]
	str	r4, [sp, #108]
	str	lr, [sp, #104]
	str	ip, [sp, #72]
	ldr	r3, [sp, #8]
.LBB393:
	.loc 5 696 0 is_stmt 0 discriminator 3
	ldr	r9, [sp, #24]
	str	r2, [sp, #52]
	sub	r2, r1, #1
	str	r2, [sp, #48]
	add	r1, r3, #16
.LVL571:
	add	r2, r9, #1024
.LVL572:
	str	r1, [sp, #124]
	str	r3, [sp, #4]
	str	r2, [sp, #8]
.LVL573:
.L183:
	ldr	r3, [sp, #48]
	ldrb	r1, [r3, #1]!	@ zero_extendqisi2
.LVL574:
	str	r3, [sp, #48]
.LVL575:
	ldr	r3, [sp, #56]
.LVL576:
	ldrb	r8, [r3, #1]!	@ zero_extendqisi2
	str	r3, [sp, #56]
	ldr	r3, [sp, #52]
	add	r10, r1, r8
	ldrb	r9, [r3, #1]!	@ zero_extendqisi2
	str	r3, [sp, #52]
.LVL577:
	ldr	r3, [sp, #60]
	add	r5, r1, r9
	ldrb	r0, [r3, #1]!	@ zero_extendqisi2
	str	r3, [sp, #60]
	ldr	r3, [sp, #64]
	sub	r10, r10, r10, asl #2
	ldrb	lr, [r3, #1]!	@ zero_extendqisi2
	str	r3, [sp, #64]
	ldr	r3, [sp, #68]
	mov	r10, r10, asl #1
	ldrb	r4, [r3, #1]!	@ zero_extendqisi2
	str	r3, [sp, #68]
	ldr	r3, [sp, #112]
	add	r5, r5, r5, asl #2
	ldrb	r6, [r3, #1]!	@ zero_extendqisi2
	str	r3, [sp, #112]
	ldr	r3, [sp, #108]
	add	r5, r10, r5, asl #2
	ldrb	r10, [r3, #1]!	@ zero_extendqisi2
	str	r3, [sp, #108]
	ldr	r3, [sp, #104]
	mov	r7, r0
.LVL578:
	ldrb	ip, [r3, #1]!	@ zero_extendqisi2
	mov	r0, r4
.LVL579:
	add	r4, r9, r7
	str	r3, [sp, #104]
	add	r4, r4, r4, asl #1
	ldr	r3, [sp, #100]
	add	r4, r5, r4
	add	r5, r8, lr
	add	fp, r1, r7
	str	r10, [sp, #24]
	rsb	r4, r5, r4
	add	r10, r9, lr
	ldrb	r5, [r3, #1]!	@ zero_extendqisi2
	mov	r2, r6
.LVL580:
	str	r5, [sp, #40]
	add	r6, r9, r8
	add	r5, r8, r7
	sub	fp, fp, fp, asl #2
	sub	r10, r10, r10, asl #2
	mov	fp, fp, asl #1
	add	r5, r5, r5, asl #2
	add	r6, r6, r6, asl #2
	mov	r10, r10, asl #1
	add	r6, fp, r6, asl #2
	str	r3, [sp, #100]
.LVL581:
	add	fp, r1, lr
	ldr	r3, [sp, #96]
	add	r10, r10, r5, asl #2
	add	r5, r8, r0
	add	fp, fp, fp, asl #1
	sub	r5, r5, r5, asl #2
	add	r6, r6, fp
	mov	fp, r5, asl #1
	ldrb	r5, [r3, #1]!	@ zero_extendqisi2
	str	r5, [sp, #16]
	add	r5, r1, r0
	str	r3, [sp, #96]
.LVL582:
	add	r5, r5, r5, asl #1
	ldr	r3, [sp, #92]
	add	r10, r10, r5
	add	r5, r7, lr
	str	r0, [sp, #20]
	add	r5, r5, r5, asl #2
	ldrb	r0, [r3, #1]!	@ zero_extendqisi2
.LVL583:
	add	r5, fp, r5, asl #2
	str	r2, [sp, #12]
	add	fp, r7, r2
	str	r3, [sp, #92]
.LVL584:
	ldr	r2, [sp, #8]
.LVL585:
	ldr	r3, [sp, #88]
	add	r4, r4, #15
	ldrb	r4, [r2, r4, asr #5]	@ zero_extendqisi2
	ldrb	r2, [r3, #1]!	@ zero_extendqisi2
	str	r3, [sp, #88]
.LVL586:
	ldr	r3, [sp, #84]
	str	r7, [sp, #44]
	ldrb	r7, [r3, #1]!	@ zero_extendqisi2
.LVL587:
	str	r3, [sp, #84]
.LVL588:
	ldr	r3, [sp, #80]
	str	r7, [sp, #28]
.LVL589:
	ldrb	r7, [r3, #1]!	@ zero_extendqisi2
	str	r3, [sp, #80]
.LVL590:
	ldr	r3, [sp, #76]
	str	r7, [sp, #36]
.LVL591:
	ldrb	r7, [r3, #1]!	@ zero_extendqisi2
	str	r3, [sp, #76]
.LVL592:
	ldr	r3, [sp, #72]
	str	r7, [sp, #32]
.LVL593:
	ldrb	r7, [r3, #1]!	@ zero_extendqisi2
	str	r7, [sp, #116]
	ldr	r7, [sp, #4]
	str	r3, [sp, #72]
.LVL594:
	strb	r4, [r7]
	str	r2, [sp, #120]
.LVL595:
	ldr	r2, [sp, #20]
	ldr	r3, [sp, #12]
	add	r4, r9, r2
	rsb	r6, r4, r6
	add	r4, r9, r3
	add	r4, r4, r4, asl #1
	add	r4, r5, r4
	add	r5, lr, r2
	ldr	r2, [sp, #8]
	add	r6, r6, #15
	ldrb	r6, [r2, r6, asr #5]	@ zero_extendqisi2
	strb	r6, [r7, #16]
	ldr	r3, [sp, #24]
	ldr	r6, [sp, #12]
	sub	fp, fp, fp, asl #2
	add	r6, r1, r6
	add	r1, r1, r3
.LVL596:
	add	r5, r5, r5, asl #2
	rsb	r1, r1, r4
	mov	fp, fp, asl #1
	add	r4, r8, r3
	add	fp, fp, r5, asl #2
	add	r4, r4, r4, asl #1
	rsb	r10, r6, r10
	add	fp, fp, r4
	ldr	r6, [sp, #20]
	ldr	r4, [sp, #12]
	add	r5, lr, r3
	add	r9, r9, ip
.LVL597:
	add	r4, r6, r4
	rsb	fp, r9, fp
	sub	r5, r5, r5, asl #2
	ldr	r9, [sp, #44]
	add	r4, r4, r4, asl #2
	mov	r5, r5, asl #1
	add	r5, r5, r4, asl #2
	add	r4, r9, ip
	add	r4, r4, r4, asl #1
	add	r5, r5, r4
	mov	r4, r3
	ldr	r3, [sp, #12]
	add	r6, r6, ip
	add	r4, r3, r4
	sub	r6, r6, r6, asl #2
	ldr	r9, [sp, #40]
	add	r4, r4, r4, asl #2
	mov	r6, r6, asl #1
	add	r6, r6, r4, asl #2
	add	r10, r10, #15
	ldr	r4, [sp, #12]
	ldrb	r10, [r2, r10, asr #5]	@ zero_extendqisi2
	add	r8, r8, r9
.LVL598:
	strb	r10, [r7, #32]
	mov	r3, r9
	ldr	r10, [sp, #16]
	add	r9, r4, r9
	rsb	r5, r8, r5
	ldr	r8, [sp, #44]
	sub	r9, r9, r9, asl #2
	add	r7, r8, r10
	mov	r4, r9, asl #1
	ldr	r8, [sp, #24]
	add	r9, lr, r3
	add	r9, r9, r9, asl #1
	add	r6, r6, r9
	add	r9, r8, ip
	add	r9, r9, r9, asl #2
	add	r4, r4, r9, asl #2
	add	r1, r1, #15
	mov	r9, r10
	add	r10, r8, r10
	ldr	r8, [sp, #4]
	ldrb	r1, [r2, r1, asr #5]	@ zero_extendqisi2
	strb	r1, [r8, #48]
	mov	r1, r9
	ldr	r9, [sp, #20]
	add	fp, fp, #15
	add	r1, r9, r1
	add	r1, r1, r1, asl #1
	add	r4, r4, r1
	ldr	r1, [sp, #4]
	ldrb	fp, [r2, fp, asr #5]	@ zero_extendqisi2
	strb	fp, [r1, #64]
	ldr	fp, [sp, #16]
	rsb	r6, r7, r6
	add	r7, ip, r0
	add	r8, ip, r3
	str	ip, [sp, #44]
.LVL599:
	add	fp, r3, fp
	ldr	ip, [sp, #12]
.LVL600:
	sub	r10, r10, r10, asl #2
	sub	r7, r7, r7, asl #2
	add	lr, lr, r0
.LVL601:
	add	r8, r8, r8, asl #2
	add	fp, fp, fp, asl #2
	mov	r10, r10, asl #1
	add	r5, r5, #15
	mov	r7, r7, asl #1
	ldrb	r5, [r2, r5, asr #5]	@ zero_extendqisi2
	add	r9, ip, r0
	ldr	r2, [sp, #120]
	add	r10, r10, r8, asl #2
	rsb	r4, lr, r4
	ldr	r8, [sp, #24]
	ldr	lr, [sp, #20]
	add	r7, r7, fp, asl #2
	ldr	fp, [sp, #16]
	add	r9, r9, r9, asl #1
	add	ip, lr, r2
	add	r10, r10, r9
	add	lr, r8, r2
	mov	r9, r0
	add	r8, fp, r0
	ldr	r0, [sp, #4]
.LVL602:
	rsb	r10, ip, r10
	strb	r5, [r0, #80]
	ldr	r0, [sp, #28]
	ldr	ip, [sp, #44]
	add	r5, fp, r0
	ldr	fp, [sp, #8]
	add	r6, r6, #15
	ldrb	r6, [fp, r6, asr #5]	@ zero_extendqisi2
	add	r1, r3, r2
	add	fp, ip, r0
	ldr	ip, [sp, #12]
	add	lr, lr, lr, asl #1
	sub	r1, r1, r1, asl #2
	add	r0, ip, r0
	str	r9, [sp, #12]
.LVL603:
	add	ip, r9, r2
.LVL604:
	add	r8, r8, r8, asl #2
	add	r7, r7, lr
	mov	r1, r1, asl #1
	mov	lr, r9
	ldr	r9, [sp, #4]
.LVL605:
	add	r1, r1, r8, asl #2
	ldr	r8, [sp, #36]
	strb	r6, [r9, #96]
	mov	r9, r3
	add	r6, r9, r8
	mov	r3, r8
	add	lr, lr, r8
.LVL606:
	ldr	r8, [sp, #8]
	add	r4, r4, #15
	ldrb	r4, [r8, r4, asr #5]	@ zero_extendqisi2
	rsb	r7, r0, r7
	ldr	r8, [sp, #24]
	ldr	r0, [sp, #28]
	add	fp, fp, fp, asl #1
	add	r9, r2, r0
	add	fp, r1, fp
	add	r0, r8, r3
	ldr	r1, [sp, #32]
	ldr	r8, [sp, #16]
	sub	r5, r5, r5, asl #2
	add	ip, ip, ip, asl #2
	mov	r5, r5, asl #1
	str	fp, [sp, #24]
.LVL607:
	add	r5, r5, ip, asl #2
	add	fp, r2, r1
	ldr	ip, [sp, #28]
	add	r8, r8, r1
	ldr	r1, [sp, #4]
	add	r10, r10, #15
	strb	r4, [r1, #112]
	add	r4, ip, r3
	ldr	r3, [sp, #8]
	add	r1, r7, #15
	ldrb	r10, [r3, r10, asr #5]	@ zero_extendqisi2
	ldr	r3, [sp, #24]
	str	r1, [sp, #20]
.LVL608:
	rsb	r1, r0, r3
	ldr	r3, [sp, #116]
	add	r6, r6, r6, asl #1
	add	r0, ip, r3
	sub	r0, r0, r0, asl #2
	ldr	r7, [sp, #32]
	ldr	ip, [sp, #44]
	add	r5, r5, r6
	str	r0, [sp, #24]
	add	r6, r4, r4, asl #2
	ldr	r0, [sp, #36]
	ldr	r4, [sp, #12]
	sub	lr, lr, lr, asl #2
	add	r9, r9, r9, asl #2
	mov	lr, lr, asl #1
	add	ip, ip, r7
	add	lr, lr, r9, asl #2
	sub	fp, fp, fp, asl #2
	add	r9, r4, r3
	add	r4, r0, r7
	ldr	r7, [sp, #4]
	mov	fp, fp, asl #1
	strb	r10, [r7, #128]
	add	fp, fp, r6, asl #2
	ldr	r7, [sp, #8]
	ldr	r6, [sp, #32]
	add	r10, r0, r3
	add	r8, r8, r8, asl #1
	ldr	r0, [sp, #20]
	rsb	r5, ip, r5
	add	lr, lr, r8
	str	r2, [sp, #20]
	add	r8, r6, r3
	ldr	ip, [sp, #40]
	add	r6, r2, r3
	ldr	r2, [sp, #4]
	ldrb	r7, [r7, r0, asr #5]	@ zero_extendqisi2
	strb	r7, [r2, #144]
	add	ip, ip, r3
	ldr	r7, [sp, #8]
	rsb	lr, ip, lr
	add	r1, r1, #15
	ldr	ip, [sp, #16]
	ldr	r0, [sp, #24]
	ldrb	r1, [r7, r1, asr #5]	@ zero_extendqisi2
	strb	r1, [r2, #160]
	add	r7, ip, r3
	add	r9, r9, r9, asl #1
	mov	r3, r2
	add	r4, r4, r4, asl #2
	ldr	r2, [sp, #8]
	mov	r0, r0, asl #1
	add	r5, r5, #15
	add	fp, fp, r9
	add	r0, r0, r4, asl #2
	ldr	r9, [sp, #32]
	ldr	r4, [sp, #12]
	ldr	ip, [sp, #28]
	ldrb	r1, [r2, r5, asr #5]	@ zero_extendqisi2
	sub	r10, r10, r10, asl #2
	add	lr, lr, #15
	strb	r1, [r3, #176]
	rsb	fp, r7, fp
	ldrb	r1, [r2, lr, asr #5]	@ zero_extendqisi2
	mov	r7, r2
	add	r5, r4, r9
	ldr	r2, [sp, #20]
	add	ip, ip, r9
	add	r8, r8, r8, asl #2
	add	r6, r6, r6, asl #1
	mov	r10, r10, asl #1
	ldr	r4, [sp, #36]
	add	ip, ip, ip, asl #1
	add	r0, r0, r6
	add	r10, r10, r8, asl #2
	add	r10, r10, ip
	add	fp, fp, #15
	add	ip, r2, r4
	rsb	r0, r5, r0
	strb	r1, [r3, #192]
	add	r0, r0, #15
	ldrb	r1, [r7, fp, asr #5]	@ zero_extendqisi2
	rsb	r10, ip, r10
	strb	r1, [r3, #208]
	add	r10, r10, #15
	ldrb	r1, [r7, r0, asr #5]	@ zero_extendqisi2
	strb	r1, [r3, #224]
	ldrb	r1, [r7, r10, asr #5]	@ zero_extendqisi2
	add	r2, r3, #1
	strb	r1, [r3, #240]
.LBE393:
	.loc 5 696 0 discriminator 1
	ldr	r3, [sp, #124]
.LBB394:
	.loc 5 696 0 discriminator 3
	str	r2, [sp, #4]
.LVL609:
.LBE394:
	.loc 5 696 0 discriminator 1
	cmp	r2, r3
	bne	.L183
	.loc 5 696 0
	add	sp, sp, #132
	.cfi_def_cfa_offset 36
	@ sp needed
	ldmfd	sp!, {r4, r5, r6, r7, r8, r9, r10, fp, pc}
.L187:
	.align	2
.L186:
	.word	ff_crop_tab(GOT_PREL)+(.-(.LPIC37+8))
	.cfi_endproc
.LFE269:
	.size	put_no_rnd_mpeg4_qpel16_v_lowpass.constprop.5, .-put_no_rnd_mpeg4_qpel16_v_lowpass.constprop.5
	.align	2
	.type	put_no_rnd_qpel16_mc02_c, %function
put_no_rnd_qpel16_mc02_c:
.LFB177:
	.loc 5 696 0 is_stmt 1
	.cfi_startproc
	@ args = 0, pretend = 0, frame = 512
	@ frame_needed = 0, uses_anonymous_args = 0
.LVL610:
	stmfd	sp!, {r4, r5, r6, r7, r8, r9, r10, fp, lr}
	.cfi_def_cfa_offset 36
	.cfi_offset 4, -36
	.cfi_offset 5, -32
	.cfi_offset 6, -28
	.cfi_offset 7, -24
	.cfi_offset 8, -20
	.cfi_offset 9, -16
	.cfi_offset 10, -12
	.cfi_offset 11, -8
	.cfi_offset 14, -4
	sub	sp, sp, #516
	.cfi_def_cfa_offset 552
.LVL611:
.LBB400:
.LBB401:
	.loc 6 85 0
	add	lr, r1, r2
	.loc 6 82 0
	ldrb	r6, [r1, r2]	@ zero_extendqisi2
	str	r2, [sp]
	ldrb	r2, [r1, #12]	@ zero_extendqisi2
.LVL612:
	str	r2, [sp, #8]
	ldrb	r2, [lr, #2]	@ zero_extendqisi2
	str	r2, [sp, #24]
	ldrb	r2, [r1, #2]	@ zero_extendqisi2
	str	r2, [sp, #4]
	ldrb	r2, [r1, #6]	@ zero_extendqisi2
	str	r2, [sp, #12]
	ldrb	r2, [r1, #10]	@ zero_extendqisi2
	ldrb	r7, [r1, #13]	@ zero_extendqisi2
	ldrb	r3, [lr, #4]	@ zero_extendqisi2
	str	r2, [sp, #16]
	ldr	r2, [sp, #8]
	ldrb	fp, [lr, #1]	@ zero_extendqisi2
	ldrb	r10, [r1, #1]	@ zero_extendqisi2
	ldrb	r9, [r1, #5]	@ zero_extendqisi2
	ldrb	r5, [r1]	@ zero_extendqisi2
	ldrb	r4, [r1, #4]	@ zero_extendqisi2
	str	r3, [sp, #28]
	orr	r2, r2, r7, asl #8
	ldrb	r3, [lr, #5]	@ zero_extendqisi2
	ldr	r7, [sp, #28]
	orr	r5, r5, r10, asl #8
	orr	r6, r6, fp, asl #8
	ldrb	r10, [lr, #6]	@ zero_extendqisi2
	ldrb	fp, [r1, #14]	@ zero_extendqisi2
	orr	r4, r4, r9, asl #8
	ldrb	r9, [r1, #3]	@ zero_extendqisi2
	ldrb	r8, [r1, #9]	@ zero_extendqisi2
	ldrb	ip, [r1, #8]	@ zero_extendqisi2
	str	fp, [sp, #20]
	str	r9, [sp, #8]
	ldrb	fp, [lr, #3]	@ zero_extendqisi2
	orr	r3, r7, r3, asl #8
	str	r10, [sp, #32]
	ldrb	r10, [r1, #7]	@ zero_extendqisi2
	ldr	r7, [sp, #24]
	orr	ip, ip, r8, asl #8
	orr	r6, r6, r7, asl #16
	ldr	r7, [sp, #4]
	ldrb	r8, [r1, #15]	@ zero_extendqisi2
	orr	r7, r5, r7, asl #16
	ldrb	r5, [lr, #7]	@ zero_extendqisi2
	str	r5, [sp, #4]
	ldr	r5, [sp, #12]
	ldrb	r9, [r1, #11]	@ zero_extendqisi2
	orr	r4, r4, r5, asl #16
	ldr	r5, [sp, #16]
	orr	r6, r6, fp, asl #24
	orr	ip, ip, r5, asl #16
	ldr	r5, [sp, #20]
	orr	r9, ip, r9, asl #24
	orr	r2, r2, r5, asl #16
	ldr	r5, [sp, #32]
	orr	r2, r2, r8, asl #24
	ldr	ip, [sp, #4]
	.loc 6 85 0
	ldr	r8, [sp]
	.loc 6 82 0
	orr	r3, r3, r5, asl #16
	ldr	r5, [sp, #8]
	add	fp, sp, #112
	orr	r5, r7, r5, asl #24
	orr	r3, r3, ip, asl #24
	.loc 6 85 0
	add	ip, lr, r8
	.loc 6 83 0
	ldrb	r7, [r1, #16]	@ zero_extendqisi2
	.loc 6 82 0
	str	r2, [fp, #4]
	orr	r4, r4, r10, asl #24
	str	r5, [fp, #-8]
	ldrb	r2, [ip, #9]	@ zero_extendqisi2
	ldrb	r5, [r1, r8, asl #1]	@ zero_extendqisi2
	ldrb	r1, [ip, #4]	@ zero_extendqisi2
.LVL613:
	stmda	fp, {r4, r9}
	ldrb	r10, [lr, #9]	@ zero_extendqisi2
	ldrb	r9, [ip, #1]	@ zero_extendqisi2
	ldrb	r8, [lr, #13]	@ zero_extendqisi2
	str	r6, [fp, #16]
	str	r3, [fp, #20]
	ldrb	r6, [lr, #8]	@ zero_extendqisi2
	ldrb	r4, [lr, #12]	@ zero_extendqisi2
	ldrb	r3, [ip, #8]	@ zero_extendqisi2
	.loc 6 83 0
	strb	r7, [sp, #120]
.LVL614:
	.loc 6 82 0
	str	r1, [sp, #12]
	ldrb	r7, [ip, #5]	@ zero_extendqisi2
	str	r2, [sp, #20]
	ldrb	r1, [ip, #13]	@ zero_extendqisi2
	str	r1, [sp, #32]
	ldrb	r1, [lr, #10]	@ zero_extendqisi2
	str	r1, [sp, #4]
	ldrb	r1, [ip, #2]	@ zero_extendqisi2
	str	r1, [sp, #16]
	ldrb	r1, [lr, #14]	@ zero_extendqisi2
	str	r1, [sp, #8]
	ldr	r1, [sp, #12]
	orr	r5, r5, r9, asl #8
	orr	r1, r1, r7, asl #8
	ldr	r7, [sp, #20]
	ldrb	r9, [ip, #10]	@ zero_extendqisi2
	orr	r3, r3, r7, asl #8
	ldrb	r7, [lr, #11]	@ zero_extendqisi2
	ldrb	r2, [ip, #12]	@ zero_extendqisi2
	str	r9, [sp, #28]
	mov	r9, r7
	ldr	r7, [sp, #32]
	orr	r6, r6, r10, asl #8
	orr	r7, r2, r7, asl #8
	ldr	r2, [sp, #4]
	ldrb	r10, [ip, #6]	@ zero_extendqisi2
	orr	r6, r6, r2, asl #16
	ldr	r2, [sp, #16]
	str	r10, [sp, #24]
	orr	r5, r5, r2, asl #16
	ldrb	r2, [ip, #11]	@ zero_extendqisi2
	str	r2, [sp, #4]
	ldr	r2, [sp, #8]
	orr	r4, r4, r8, asl #8
	orr	r4, r4, r2, asl #16
	ldr	r2, [sp, #24]
	ldrb	r8, [ip, #14]	@ zero_extendqisi2
	orr	r1, r1, r2, asl #16
	ldr	r2, [sp, #28]
	str	r8, [sp, #36]
	orr	r3, r3, r2, asl #16
	ldr	r2, [sp, #36]
	ldrb	r10, [ip, #3]	@ zero_extendqisi2
	ldrb	r8, [lr, #15]	@ zero_extendqisi2
	orr	r6, r6, r9, asl #24
	str	r10, [sp, #20]
	str	r8, [sp, #12]
	ldrb	r10, [ip, #7]	@ zero_extendqisi2
	ldrb	r8, [ip, #15]	@ zero_extendqisi2
	orr	r7, r7, r2, asl #16
	.loc 6 85 0
	ldr	r2, [sp]
	.loc 6 82 0
	ldr	r9, [sp, #20]
	orr	r1, r1, r10, asl #24
	orr	r5, r5, r9, asl #24
	ldr	r9, [sp, #12]
	str	r1, [fp, #44]
	orr	r4, r4, r9, asl #24
	ldr	r9, [sp, #4]
	ldr	r1, [sp]
	orr	r9, r3, r9, asl #24
	.loc 6 85 0
	ldr	r3, [sp]
	add	r2, ip, r2
	add	r3, r2, r3
	.loc 6 83 0
	ldrb	r10, [ip, #16]	@ zero_extendqisi2
	.loc 6 82 0
	str	r4, [fp, #28]
	ldrb	r4, [ip, r1, asl #1]	@ zero_extendqisi2
	ldrb	ip, [r2, #8]	@ zero_extendqisi2
	str	ip, [sp, #8]
	ldrb	ip, [r3, #4]	@ zero_extendqisi2
	str	ip, [sp, #16]
	ldrb	ip, [r3, #5]	@ zero_extendqisi2
	orr	r7, r7, r8, asl #24
	str	ip, [sp, #28]
	.loc 6 83 0
	ldrb	r8, [lr, #16]	@ zero_extendqisi2
	.loc 6 82 0
	ldrb	ip, [r2, #2]	@ zero_extendqisi2
	str	r7, [fp, #52]
	str	r6, [fp, #24]
	ldrb	r7, [r2, #9]	@ zero_extendqisi2
	ldrb	r6, [r2, #13]	@ zero_extendqisi2
	str	r5, [fp, #40]
	str	r9, [fp, #48]
	ldrb	r5, [lr, r1, asl #1]	@ zero_extendqisi2
	ldrb	r9, [r3, #1]	@ zero_extendqisi2
	ldrb	lr, [r2, #4]	@ zero_extendqisi2
.LVL615:
	ldrb	r1, [r2, #12]	@ zero_extendqisi2
	.loc 6 83 0
	strb	r10, [sp, #168]
	strb	r8, [sp, #144]
.LVL616:
	.loc 6 82 0
	ldrb	r10, [r2, #1]	@ zero_extendqisi2
	ldrb	r8, [r2, #5]	@ zero_extendqisi2
	str	ip, [sp, #4]
	ldrb	ip, [r3, #2]	@ zero_extendqisi2
	str	ip, [sp, #24]
	ldrb	ip, [r2, #6]	@ zero_extendqisi2
	str	ip, [sp, #12]
	ldr	ip, [sp, #8]
	orr	r5, r5, r10, asl #8
	orr	r4, r4, r9, asl #8
	ldrb	r10, [r2, #10]	@ zero_extendqisi2
	ldrb	r9, [r2, #14]	@ zero_extendqisi2
	str	r9, [sp, #20]
	orr	ip, ip, r7, asl #8
	orr	r1, r1, r6, asl #8
	ldrb	r6, [r2, #3]	@ zero_extendqisi2
	ldr	r7, [sp, #28]
	str	r6, [sp, #8]
	orr	lr, lr, r8, asl #8
	ldr	r6, [sp, #16]
	ldrb	r8, [r3, #6]	@ zero_extendqisi2
	orr	ip, ip, r10, asl #16
	ldr	r10, [sp, #20]
	str	r8, [sp, #32]
	orr	r6, r6, r7, asl #8
	orr	r1, r1, r10, asl #16
	ldrb	r7, [r3, #3]	@ zero_extendqisi2
	ldr	r10, [sp, #32]
	str	r7, [sp, #28]
	ldr	r7, [sp, #4]
	orr	r6, r6, r10, asl #16
	ldr	r10, [sp, #8]
	orr	r5, r5, r7, asl #16
	ldr	r7, [sp, #24]
	ldrb	r8, [r2, #7]	@ zero_extendqisi2
	ldrb	r9, [r2, #11]	@ zero_extendqisi2
	orr	r5, r5, r10, asl #24
	ldr	r10, [sp, #28]
	str	r8, [sp, #16]
	orr	r4, r4, r7, asl #16
	ldr	r7, [sp, #12]
	orr	r4, r4, r10, asl #24
	orr	ip, ip, r9, asl #24
	ldr	r10, [sp, #16]
	.loc 6 85 0
	ldr	r9, [sp]
	.loc 6 82 0
	orr	lr, lr, r7, asl #16
	ldrb	r7, [r3, #7]	@ zero_extendqisi2
	orr	lr, lr, r10, asl #24
	.loc 6 85 0
	add	r10, r3, r9
	.loc 6 82 0
	ldrb	r8, [r2, #15]	@ zero_extendqisi2
	orr	r6, r6, r7, asl #24
	str	r5, [fp, #64]
	.loc 6 83 0
	ldrb	r7, [r2, #16]	@ zero_extendqisi2
	.loc 6 82 0
	str	r4, [fp, #88]
	str	lr, [fp, #68]
	ldrb	r4, [r2, r9, asl #1]	@ zero_extendqisi2
	ldrb	r2, [r10, #9]	@ zero_extendqisi2
.LVL617:
	str	r2, [sp, #12]
	ldrb	r2, [r10, #12]	@ zero_extendqisi2
	str	r2, [sp, #20]
	ldrb	r2, [r10, #13]	@ zero_extendqisi2
	str	r2, [sp, #32]
	ldrb	r2, [r3, #10]	@ zero_extendqisi2
	orr	r1, r1, r8, asl #24
	ldrb	r5, [r3, #8]	@ zero_extendqisi2
	ldrb	r8, [r3, #9]	@ zero_extendqisi2
	str	r2, [sp, #4]
	ldrb	r2, [r10, #2]	@ zero_extendqisi2
	str	r6, [fp, #92]
	ldrb	lr, [r3, #12]	@ zero_extendqisi2
	ldrb	r6, [r3, #13]	@ zero_extendqisi2
	str	r2, [sp, #16]
	ldrb	r2, [r3, #14]	@ zero_extendqisi2
	str	r1, [fp, #76]
	ldrb	r9, [r10, #8]	@ zero_extendqisi2
	.loc 6 83 0
	strb	r7, [sp, #192]
.LVL618:
	.loc 6 82 0
	str	r2, [sp, #8]
	ldrb	r7, [r10, #1]	@ zero_extendqisi2
	orr	r5, r5, r8, asl #8
	ldr	r2, [sp, #12]
	ldrb	r8, [r10, #6]	@ zero_extendqisi2
	str	r8, [sp, #24]
	orr	lr, lr, r6, asl #8
	ldrb	r8, [r10, #10]	@ zero_extendqisi2
	ldrb	r6, [r10, #14]	@ zero_extendqisi2
	ldrb	r1, [r10, #4]	@ zero_extendqisi2
	str	ip, [fp, #72]
	orr	r4, r4, r7, asl #8
	ldrb	ip, [r10, #5]	@ zero_extendqisi2
	str	r8, [sp, #28]
	orr	r2, r9, r2, asl #8
	str	r6, [sp, #36]
	ldrb	r9, [r3, #11]	@ zero_extendqisi2
	ldr	r6, [sp, #20]
	ldr	r7, [sp, #32]
	ldrb	r8, [r10, #3]	@ zero_extendqisi2
	orr	r6, r6, r7, asl #8
	ldrb	r7, [r3, #15]	@ zero_extendqisi2
	str	r7, [sp, #12]
	ldr	r7, [sp, #4]
	str	r8, [sp, #20]
	orr	ip, r1, ip, asl #8
	orr	r5, r5, r7, asl #16
	ldrb	r1, [r10, #7]	@ zero_extendqisi2
	ldr	r7, [sp, #16]
	str	r1, [sp, #4]
	orr	r5, r5, r9, asl #24
	ldr	r1, [sp, #24]
	ldr	r9, [sp, #20]
	orr	r4, r4, r7, asl #16
	ldr	r7, [sp, #8]
	orr	r4, r4, r9, asl #24
	orr	ip, ip, r1, asl #16
	ldr	r9, [sp, #12]
	ldr	r1, [sp, #28]
	orr	lr, lr, r7, asl #16
	orr	r2, r2, r1, asl #16
	orr	lr, lr, r9, asl #24
	ldr	r1, [sp, #36]
	ldr	r9, [sp, #4]
	ldrb	r8, [r10, #11]	@ zero_extendqisi2
	ldrb	r7, [r10, #15]	@ zero_extendqisi2
	orr	ip, ip, r9, asl #24
	orr	r6, r6, r1, asl #16
	.loc 6 85 0
	ldr	r1, [sp]
	.loc 6 82 0
	orr	r8, r2, r8, asl #24
	str	ip, [fp, #116]
	.loc 6 85 0
	ldr	r2, [sp]
	.loc 6 82 0
	ldr	ip, [sp]
	.loc 6 85 0
	add	r1, r10, r1
	.loc 6 83 0
	ldrb	r9, [r10, #16]	@ zero_extendqisi2
	.loc 6 82 0
	orr	r6, r6, r7, asl #24
	.loc 6 83 0
	ldrb	r7, [r3, #16]	@ zero_extendqisi2
	.loc 6 85 0
	add	r2, r1, r2
	.loc 6 82 0
	str	lr, [fp, #100]
	str	r6, [fp, #124]
	str	r5, [fp, #96]
	str	r8, [fp, #120]
	ldrb	r5, [r3, ip, asl #1]	@ zero_extendqisi2
	str	r4, [fp, #112]
	.loc 6 83 0
	strb	r9, [sp, #240]
	strb	r7, [sp, #216]
.LVL619:
	.loc 6 82 0
	ldrb	r4, [r10, ip, asl #1]	@ zero_extendqisi2
	ldrb	r3, [r1, #12]	@ zero_extendqisi2
	str	r3, [sp, #8]
	ldrb	r3, [r2, #4]	@ zero_extendqisi2
	str	r3, [sp, #16]
	ldrb	r3, [r2, #5]	@ zero_extendqisi2
	str	r3, [sp, #28]
	ldrb	r3, [r1, #2]	@ zero_extendqisi2
	str	r3, [sp, #4]
	ldrb	r3, [r2, #2]	@ zero_extendqisi2
	str	r3, [sp, #24]
	ldrb	r3, [r1, #6]	@ zero_extendqisi2
	ldrb	r6, [r1, #13]	@ zero_extendqisi2
	str	r3, [sp, #12]
	ldr	r3, [sp, #8]
	ldrb	r7, [r1, #9]	@ zero_extendqisi2
	ldrb	ip, [r1, #8]	@ zero_extendqisi2
	ldrb	r10, [r1, #1]	@ zero_extendqisi2
	ldrb	r8, [r1, #5]	@ zero_extendqisi2
	ldrb	lr, [r1, #4]	@ zero_extendqisi2
	orr	r3, r3, r6, asl #8
	ldrb	r6, [r1, #3]	@ zero_extendqisi2
	ldrb	r9, [r2, #1]	@ zero_extendqisi2
	orr	ip, ip, r7, asl #8
	str	r6, [sp, #8]
	ldr	r7, [sp, #28]
	ldr	r6, [sp, #16]
	orr	r5, r5, r10, asl #8
	orr	lr, lr, r8, asl #8
	ldrb	r10, [r1, #10]	@ zero_extendqisi2
	ldrb	r8, [r2, #6]	@ zero_extendqisi2
	orr	r4, r4, r9, asl #8
	str	r8, [sp, #32]
	ldrb	r9, [r1, #14]	@ zero_extendqisi2
	ldrb	r8, [r1, #7]	@ zero_extendqisi2
	orr	r6, r6, r7, asl #8
	ldrb	r7, [r2, #3]	@ zero_extendqisi2
	str	r9, [sp, #20]
	str	r7, [sp, #28]
	orr	ip, ip, r10, asl #16
	str	r8, [sp, #16]
	ldr	r10, [sp, #20]
	ldr	r7, [sp, #4]
	orr	r3, r3, r10, asl #16
	ldr	r10, [sp, #32]
	orr	r5, r5, r7, asl #16
	orr	r6, r6, r10, asl #16
	ldr	r10, [sp, #8]
	ldr	r7, [sp, #24]
	ldrb	r9, [r1, #11]	@ zero_extendqisi2
	orr	r5, r5, r10, asl #24
	ldr	r10, [sp, #28]
	orr	r4, r4, r7, asl #16
	ldr	r7, [sp, #12]
	ldrb	r8, [r1, #15]	@ zero_extendqisi2
	orr	r4, r4, r10, asl #24
	orr	ip, ip, r9, asl #24
	ldr	r10, [sp, #16]
	.loc 6 85 0
	ldr	r9, [sp]
	.loc 6 82 0
	orr	lr, lr, r7, asl #16
	ldrb	r7, [r2, #7]	@ zero_extendqisi2
	orr	lr, lr, r10, asl #24
	orr	r3, r3, r8, asl #24
	.loc 6 85 0
	add	r10, r2, r9
	.loc 6 82 0
	str	r3, [fp, #148]
	orr	r6, r6, r7, asl #24
	ldrb	r3, [r10, #9]	@ zero_extendqisi2
	.loc 6 83 0
	ldrb	r7, [r1, #16]	@ zero_extendqisi2
	.loc 6 82 0
	str	lr, [fp, #140]
	str	r6, [fp, #164]
	ldrb	lr, [r2, #12]	@ zero_extendqisi2
	ldrb	r6, [r2, #13]	@ zero_extendqisi2
	str	r3, [sp, #12]
	ldrb	r3, [r10, #12]	@ zero_extendqisi2
	ldrb	r8, [r2, #9]	@ zero_extendqisi2
	str	r5, [fp, #136]
	str	r4, [fp, #160]
	str	ip, [fp, #144]
	ldrb	r4, [r1, r9, asl #1]	@ zero_extendqisi2
	ldrb	r5, [r2, #8]	@ zero_extendqisi2
	ldrb	r1, [r10, #4]	@ zero_extendqisi2
.LVL620:
	ldrb	r9, [r10, #8]	@ zero_extendqisi2
	ldrb	ip, [r10, #5]	@ zero_extendqisi2
	.loc 6 83 0
	strb	r7, [sp, #264]
.LVL621:
	.loc 6 82 0
	str	r3, [sp, #20]
	ldrb	r7, [r10, #1]	@ zero_extendqisi2
	ldrb	r3, [r10, #13]	@ zero_extendqisi2
	str	r3, [sp, #32]
	orr	lr, lr, r6, asl #8
	ldrb	r6, [r10, #14]	@ zero_extendqisi2
	ldrb	r3, [r2, #10]	@ zero_extendqisi2
	str	r6, [sp, #36]
	orr	ip, r1, ip, asl #8
	ldr	r6, [sp, #32]
	ldr	r1, [sp, #20]
	str	r3, [sp, #4]
	orr	r6, r1, r6, asl #8
	ldrb	r3, [r10, #2]	@ zero_extendqisi2
	ldr	r1, [sp, #4]
	str	r3, [sp, #16]
	orr	r5, r5, r8, asl #8
	orr	r5, r5, r1, asl #16
	ldr	r1, [sp, #16]
	ldrb	r3, [r2, #14]	@ zero_extendqisi2
	orr	r4, r4, r7, asl #8
	str	r3, [sp, #8]
	orr	r4, r4, r1, asl #16
	ldrb	r1, [r10, #11]	@ zero_extendqisi2
	ldrb	r8, [r10, #6]	@ zero_extendqisi2
	str	r1, [sp, #4]
	ldr	r1, [sp, #8]
	str	r8, [sp, #24]
	ldrb	r7, [r10, #10]	@ zero_extendqisi2
	orr	lr, lr, r1, asl #16
	ldr	r1, [sp, #24]
	str	r7, [sp, #28]
	ldr	r3, [sp, #12]
	ldrb	r7, [r2, #11]	@ zero_extendqisi2
	orr	ip, ip, r1, asl #16
	ldr	r1, [sp, #28]
	orr	r3, r9, r3, asl #8
	ldrb	r9, [r2, #15]	@ zero_extendqisi2
	mov	r8, r7
	str	r9, [sp, #12]
	ldrb	r7, [r10, #3]	@ zero_extendqisi2
	ldrb	r9, [r10, #7]	@ zero_extendqisi2
	orr	r3, r3, r1, asl #16
	ldr	r1, [sp, #36]
	str	r7, [sp, #20]
	orr	r5, r5, r8, asl #24
	ldrb	r7, [r10, #15]	@ zero_extendqisi2
	orr	r9, ip, r9, asl #24
	orr	r6, r6, r1, asl #16
	.loc 6 85 0
	ldr	r1, [sp]
	.loc 6 82 0
	ldr	r8, [sp, #20]
	ldr	ip, [sp, #4]
	.loc 6 85 0
	add	r1, r10, r1
	.loc 6 82 0
	orr	r3, r3, ip, asl #24
	str	r3, [fp, #192]
	.loc 6 85 0
	ldr	ip, [sp]
	.loc 6 82 0
	ldr	r3, [sp]
	.loc 6 85 0
	add	ip, r1, ip
	.loc 6 82 0
	orr	r6, r6, r7, asl #24
	str	r5, [fp, #168]
	.loc 6 83 0
	ldrb	r7, [r2, #16]	@ zero_extendqisi2
	.loc 6 82 0
	ldrb	r5, [r2, r3, asl #1]	@ zero_extendqisi2
	ldrb	r2, [r1, #8]	@ zero_extendqisi2
.LVL622:
	str	r2, [sp, #8]
	ldrb	r2, [ip, #4]	@ zero_extendqisi2
	orr	r4, r4, r8, asl #24
	str	r2, [sp, #16]
	ldr	r8, [sp, #12]
	ldrb	r2, [ip, #5]	@ zero_extendqisi2
	str	r2, [sp, #32]
	ldrb	r2, [r1, #2]	@ zero_extendqisi2
	orr	lr, lr, r8, asl #24
	str	r2, [sp, #4]
	.loc 6 83 0
	ldrb	r8, [r10, #16]	@ zero_extendqisi2
	.loc 6 82 0
	ldrb	r2, [ip, #2]	@ zero_extendqisi2
	str	lr, [fp, #172]
	str	r6, [fp, #196]
	str	r4, [fp, #184]
	ldrb	r6, [r1, #13]	@ zero_extendqisi2
	ldrb	r4, [r10, r3, asl #1]	@ zero_extendqisi2
	str	r9, [fp, #188]
	ldrb	r10, [r1, #1]	@ zero_extendqisi2
	ldrb	r9, [ip, #1]	@ zero_extendqisi2
	ldrb	lr, [r1, #4]	@ zero_extendqisi2
	ldrb	r3, [r1, #12]	@ zero_extendqisi2
	.loc 6 83 0
	strb	r8, [sp, #312]
	strb	r7, [sp, #288]
.LVL623:
	.loc 6 82 0
	ldrb	r8, [r1, #5]	@ zero_extendqisi2
	ldrb	r7, [r1, #9]	@ zero_extendqisi2
	str	r2, [sp, #28]
	ldrb	r2, [r1, #6]	@ zero_extendqisi2
