	.arch armv5te
	.fpu softvfp
	.eabi_attribute 20, 1
	.eabi_attribute 21, 1
	.eabi_attribute 23, 3
	.eabi_attribute 24, 1
	.eabi_attribute 25, 1
	.eabi_attribute 26, 2
	.eabi_attribute 30, 2
	.eabi_attribute 34, 0
	.eabi_attribute 18, 4
	.file	"af_volume.c"
	.text
.Ltext0:
	.cfi_sections	.debug_frame
	.align	2
	.type	scale_samples_u8, %function
scale_samples_u8:
.LFB60:
	.file 1 "libavfilter/af_volume.c"
	.loc 1 180 0
	.cfi_startproc
	@ args = 0, pretend = 0, frame = 0
	@ frame_needed = 0, uses_anonymous_args = 0
.LVL0:
	.loc 1 182 0 discriminator 1
	cmp	r2, #0
.LVL1:
	bxle	lr
	.loc 1 180 0
	stmfd	sp!, {r4, r5, r6, r7, r8, r9, lr}
	.cfi_def_cfa_offset 28
	.cfi_offset 4, -28
	.cfi_offset 5, -24
	.cfi_offset 6, -20
	.cfi_offset 7, -16
	.cfi_offset 8, -12
	.cfi_offset 9, -8
	.cfi_offset 14, -4
	add	r2, r1, r2
.LVL2:
	sub	r0, r0, #1
.LVL3:
	mov	r6, r3
	mov	r7, r3, asr #31
.LVL4:
.L5:
	.loc 1 183 0
	ldrb	r8, [r1], #1	@ zero_extendqisi2
.LVL5:
	mov	r9, #0
	subs	r8, r8, #128
	mul	r3, r8, r7
	sbc	r9, r9, #0
	umull	r4, r5, r8, r6
	mla	r3, r6, r9, r3
	adds	r4, r4, #128
	add	r5, r3, r5
	adc	r5, r5, #0
	mov	ip, r4, lsr #8
	orr	ip, ip, r5, asl #24
	add	ip, ip, #128
.LVL6:
.LBB22:
.LBB23:
	.file 2 "./libavutil/common.h"
	.loc 2 161 0 discriminator 1
	rsb	r3, ip, #0
	.loc 2 161 0 is_stmt 0
	bics	lr, ip, #255
	.loc 2 161 0 discriminator 1
	mov	r3, r3, asr #31
	.loc 2 162 0 is_stmt 1
	and	ip, ip, #255
.LVL7:
	.loc 2 161 0 discriminator 1
	andne	ip, r3, #255
.LBE23:
.LBE22:
	.loc 1 182 0 discriminator 1
	cmp	r1, r2
	.loc 1 183 0
	strb	ip, [r0, #1]!
.LVL8:
	.loc 1 182 0 discriminator 1
	bne	.L5
	ldmfd	sp!, {r4, r5, r6, r7, r8, r9, pc}
	.cfi_endproc
.LFE60:
	.size	scale_samples_u8, .-scale_samples_u8
	.align	2
	.type	scale_samples_u8_small, %function
scale_samples_u8_small:
.LFB61:
	.loc 1 188 0
	.cfi_startproc
	@ args = 0, pretend = 0, frame = 0
	@ frame_needed = 0, uses_anonymous_args = 0
.LVL9:
	.loc 1 190 0 discriminator 1
	cmp	r2, #0
.LVL10:
	bxle	lr
	add	r2, r1, r2
.LVL11:
	sub	r0, r0, #1
.LVL12:
	.loc 1 188 0
	stmfd	sp!, {r4, lr}
	.cfi_def_cfa_offset 8
	.cfi_offset 4, -8
	.cfi_offset 14, -4
.LVL13:
.L15:
	.loc 1 191 0
	ldrb	ip, [r1], #1	@ zero_extendqisi2
.LVL14:
	sub	ip, ip, #128
	mul	ip, r3, ip
	add	ip, ip, #128
	mov	ip, ip, asr #8
	add	ip, ip, #128
.LVL15:
.LBB24:
.LBB25:
	.loc 2 161 0 discriminator 1
	rsb	lr, ip, #0
	.loc 2 161 0 is_stmt 0
	bics	r4, ip, #255
	.loc 2 161 0 discriminator 1
	mov	lr, lr, asr #31
	.loc 2 162 0 is_stmt 1
	and	ip, ip, #255
.LVL16:
	.loc 2 161 0 discriminator 1
	andne	ip, lr, #255
.LBE25:
.LBE24:
	.loc 1 190 0 discriminator 1
	cmp	r1, r2
	.loc 1 191 0
	strb	ip, [r0, #1]!
.LVL17:
	.loc 1 190 0 discriminator 1
	bne	.L15
	ldmfd	sp!, {r4, pc}
	.cfi_endproc
.LFE61:
	.size	scale_samples_u8_small, .-scale_samples_u8_small
	.align	2
	.type	scale_samples_s16, %function
scale_samples_s16:
.LFB62:
	.loc 1 196 0
	.cfi_startproc
	@ args = 0, pretend = 0, frame = 0
	@ frame_needed = 0, uses_anonymous_args = 0
.LVL18:
	.loc 1 200 0 discriminator 1
	cmp	r2, #0
.LVL19:
	bxle	lr
	.loc 1 196 0
	stmfd	sp!, {r4, r5, r6, r7, lr}
	.cfi_def_cfa_offset 20
	.cfi_offset 4, -20
	.cfi_offset 5, -16
	.cfi_offset 6, -12
	.cfi_offset 7, -8
	.cfi_offset 14, -4
	add	r2, r1, r2, asl #1
.LVL20:
	sub	r0, r0, #2
.LVL21:
	.loc 1 201 0
	mov	r4, #128
	mov	r5, #0
.LVL22:
.L24:
	ldrsh	ip, [r1], #2
	mov	r6, r4
	mov	r7, r5
	smlal	r6, r7, ip, r3
	mov	ip, r6, lsr #8
	orr	ip, ip, r7, asl #24
.LVL23:
.LBB26:
.LBB27:
	.loc 2 194 0 discriminator 1
	mov	lr, ip, asr #31
	eor	lr, lr, #32512
	.loc 2 194 0 is_stmt 0
	add	r6, ip, #32768
	.loc 2 194 0 discriminator 1
	eor	lr, lr, #255
	.loc 2 194 0
	movs	r6, r6, lsr #16
	.loc 2 195 0 is_stmt 1
	mov	ip, ip, asl #16
.LVL24:
	.loc 2 194 0 discriminator 1
	mov	lr, lr, asl #16
	.loc 2 195 0
	mov	ip, ip, lsr #16
	.loc 2 194 0 discriminator 1
	movne	ip, lr, lsr #16
.LBE27:
.LBE26:
	.loc 1 200 0 discriminator 1
	cmp	r1, r2
	.loc 1 201 0
	strh	ip, [r0, #2]!	@ movhi
	.loc 1 200 0 discriminator 1
	bne	.L24
	ldmfd	sp!, {r4, r5, r6, r7, pc}
	.cfi_endproc
.LFE62:
	.size	scale_samples_s16, .-scale_samples_s16
	.align	2
	.type	scale_samples_s16_small, %function
scale_samples_s16_small:
.LFB63:
	.loc 1 206 0
	.cfi_startproc
	@ args = 0, pretend = 0, frame = 0
	@ frame_needed = 0, uses_anonymous_args = 0
.LVL25:
	.loc 1 210 0 discriminator 1
	cmp	r2, #0
.LVL26:
	bxle	lr
	add	r2, r1, r2, asl #1
.LVL27:
	sub	r0, r0, #2
.LVL28:
	.loc 1 206 0
	stmfd	sp!, {r4, lr}
	.cfi_def_cfa_offset 8
	.cfi_offset 4, -8
	.cfi_offset 14, -4
.LVL29:
.L33:
	.loc 1 211 0
	ldrsh	ip, [r1], #2
	mul	ip, r3, ip
	add	ip, ip, #128
.LBB28:
.LBB29:
	.loc 2 194 0 discriminator 1
	mov	lr, ip, asr #31
	eor	lr, lr, #32512
.LBE29:
.LBE28:
	.loc 1 211 0
	mov	ip, ip, asr #8
.LVL30:
.LBB31:
.LBB30:
	.loc 2 194 0
	add	r4, ip, #32768
	.loc 2 194 0 is_stmt 0 discriminator 1
	eor	lr, lr, #255
	.loc 2 194 0
	movs	r4, r4, lsr #16
	.loc 2 195 0 is_stmt 1
	mov	ip, ip, asl #16
.LVL31:
	.loc 2 194 0 discriminator 1
	mov	lr, lr, asl #16
	.loc 2 195 0
	mov	ip, ip, lsr #16
	.loc 2 194 0 discriminator 1
	movne	ip, lr, lsr #16
.LBE30:
.LBE31:
	.loc 1 210 0 discriminator 1
	cmp	r1, r2
	.loc 1 211 0
	strh	ip, [r0, #2]!	@ movhi
.LVL32:
	.loc 1 210 0 discriminator 1
	bne	.L33
	ldmfd	sp!, {r4, pc}
	.cfi_endproc
.LFE63:
	.size	scale_samples_s16_small, .-scale_samples_s16_small
	.align	2
	.type	scale_samples_s32, %function
scale_samples_s32:
.LFB64:
	.loc 1 216 0
	.cfi_startproc
	@ args = 0, pretend = 0, frame = 0
	@ frame_needed = 0, uses_anonymous_args = 0
.LVL33:
	.loc 1 220 0 discriminator 1
	cmp	r2, #0
.LVL34:
	bxle	lr
	.loc 1 216 0
	stmfd	sp!, {r4, r5, r6, r7, r8, r9, lr}
	.cfi_def_cfa_offset 28
	.cfi_offset 4, -28
	.cfi_offset 5, -24
	.cfi_offset 6, -20
	.cfi_offset 7, -16
	.cfi_offset 8, -12
	.cfi_offset 9, -8
	.cfi_offset 14, -4
	add	r2, r1, r2, asl #2
.LVL35:
	sub	r0, r0, #4
.LVL36:
	.loc 1 221 0
	mov	r8, #128
	mov	r9, #0
.LVL37:
.L40:
	ldr	ip, [r1], #4
.LVL38:
	mov	r6, r8
	mov	r7, r9
	smlal	r6, r7, r3, ip
	mov	r4, r6, lsr #8
	orr	r4, r4, r7, asl #24
	mov	r5, r7, asr #8
.LBB32:
.LBB33:
	.file 3 "./libavutil/arm/intmath.h"
	.loc 3 105 0
#APP
@ 105 "./libavutil/arm/intmath.h" 1
	adds   lr, r5, r4, lsr #31  
	itet   ne                     
	mvnne  lr, #1<<31             
	moveq  ip, r4                
	eorne  ip, lr,  r5, asr #31  
	
@ 0 "" 2
.LVL39:
.LBE33:
.LBE32:
	.loc 1 220 0 discriminator 1
	cmp	r1, r2
	.loc 1 221 0
	str	ip, [r0, #4]!
.LVL40:
	.loc 1 220 0 discriminator 1
	bne	.L40
	ldmfd	sp!, {r4, r5, r6, r7, r8, r9, pc}
	.cfi_endproc
.LFE64:
	.size	scale_samples_s32, .-scale_samples_s32
	.section	.text.unlikely,"ax",%progbits
	.align	2
	.type	uninit, %function
uninit:
.LFB58:
	.loc 1 123 0
	.cfi_startproc
	@ args = 0, pretend = 0, frame = 0
	@ frame_needed = 0, uses_anonymous_args = 0
.LVL41:
	stmfd	sp!, {r4, lr}
	.cfi_def_cfa_offset 8
	.cfi_offset 4, -8
	.cfi_offset 14, -4
	.loc 1 124 0
	ldr	r4, [r0, #36]
.LVL42:
	.loc 1 125 0
	ldr	r0, [r4, #20]
.LVL43:
	bl	av_expr_free(PLT)
.LVL44:
	.loc 1 126 0
	mov	r0, r4
	bl	av_opt_free(PLT)
.LVL45:
	.loc 1 127 0
	add	r0, r4, #4
	.loc 1 128 0
	ldmfd	sp!, {r4, lr}
	.cfi_restore 14
	.cfi_restore 4
	.cfi_def_cfa_offset 0
.LVL46:
	.loc 1 127 0
	b	av_freep(PLT)
.LVL47:
	.cfi_endproc
.LFE58:
	.size	uninit, .-uninit
	.align	2
	.type	init, %function
init:
.LFB57:
	.loc 1 112 0
	.cfi_startproc
	@ args = 0, pretend = 0, frame = 0
	@ frame_needed = 0, uses_anonymous_args = 0
.LVL48:
	stmfd	sp!, {r4, r5, r6, r7, r8, r9, lr}
	.cfi_def_cfa_offset 28
	.cfi_offset 4, -28
	.cfi_offset 5, -24
	.cfi_offset 6, -20
	.cfi_offset 7, -16
	.cfi_offset 8, -12
	.cfi_offset 9, -8
	.cfi_offset 14, -4
	mov	r6, r0
	sub	sp, sp, #28
	.cfi_def_cfa_offset 56
	.loc 1 115 0
	mov	r0, #0
.LVL49:
	.loc 1 113 0
	ldr	r5, [r6, #36]
.LVL50:
	.loc 1 115 0
	bl	avpriv_float_dsp_alloc(PLT)
.LVL51:
	.loc 1 116 0
	cmp	r0, #0
	.loc 1 115 0
	str	r0, [r5, #4]
	.loc 1 117 0
	mvneq	r0, #11
	.loc 1 116 0
	beq	.L48
	.loc 1 119 0
	ldr	r8, [r5, #16]
.LVL52:
.LBB36:
.LBB37:
	.loc 1 98 0
	ldr	r2, .L52
	mov	r4, #0
	.loc 1 96 0
	mov	r0, r5
	ldr	r7, [r0, #20]!
.LVL53:
	.loc 1 98 0
	mov	r1, r8
	str	r6, [sp, #16]
	str	r4, [sp]
	str	r4, [sp, #4]
	str	r4, [sp, #8]
	str	r4, [sp, #12]
	mov	r3, r4
.LPIC24:
	add	r2, pc, r2
	bl	av_expr_parse(PLT)
.LVL54:
	.loc 1 100 0
	subs	r9, r0, #0
	bge	.L49
	.loc 1 101 0
	ldr	r2, .L52+4
	mov	r0, r6
.LVL55:
	mov	r3, r8
	mov	r1, #16
.LPIC25:
	add	r2, pc, r2
	bl	av_log(PLT)
.LVL56:
	.loc 1 103 0
	str	r7, [r5, #20]
	mov	r0, r9
	b	.L48
.L49:
	.loc 1 107 0
	mov	r0, r7
	bl	av_expr_free(PLT)
.LVL57:
	.loc 1 108 0
	mov	r0, r4
.LVL58:
.L48:
.LBE37:
.LBE36:
	.loc 1 120 0
	add	sp, sp, #28
	.cfi_def_cfa_offset 28
	@ sp needed
	ldmfd	sp!, {r4, r5, r6, r7, r8, r9, pc}
.LVL59:
.L53:
	.align	2
.L52:
	.word	.LANCHOR0-(.LPIC24+8)
	.word	.LC0-(.LPIC25+8)
	.cfi_endproc
.LFE57:
	.size	init, .-init
	.align	2
	.type	volume_init, %function
volume_init:
.LFB65:
	.loc 1 225 0
	.cfi_startproc
	@ args = 0, pretend = 0, frame = 0
	@ frame_needed = 0, uses_anonymous_args = 0
.LVL60:
	.loc 1 226 0
	mov	r3, #1
	.loc 1 225 0
	stmfd	sp!, {r4, lr}
	.cfi_def_cfa_offset 8
	.cfi_offset 4, -8
	.cfi_offset 14, -4
	.loc 1 225 0
	mov	r4, r0
	.loc 1 226 0
	str	r3, [r0, #172]
	.loc 1 228 0
	ldr	r0, [r0, #164]
.LVL61:
	bl	av_get_packed_sample_fmt(PLT)
.LVL62:
	cmp	r0, #4
	addls	pc, pc, r0, asl #2
	b	.L54
.L57:
	b	.L56
	b	.L58
	b	.L59
	b	.L60
	b	.L61
	.p2align 1
.L56:
.LVL63:
.LBB40:
.LBB41:
	.loc 1 230 0
	ldr	r3, [r4, #152]
	cmp	r3, #16777216
	bge	.L62
	.loc 1 231 0
	ldr	r3, .L65
.LPIC26:
	add	r3, pc, r3
	str	r3, [r4, #168]
	ldmfd	sp!, {r4, pc}
.L62:
	.loc 1 233 0
	ldr	r3, .L65+4
.LPIC27:
	add	r3, pc, r3
	str	r3, [r4, #168]
	ldmfd	sp!, {r4, pc}
.LVL64:
.L58:
.LBE41:
.LBE40:
	.loc 1 236 0
	ldr	r3, [r4, #152]
	cmp	r3, #65536
	bge	.L63
	.loc 1 237 0
	ldr	r3, .L65+8
.LPIC28:
	add	r3, pc, r3
	str	r3, [r4, #168]
	ldmfd	sp!, {r4, pc}
.L63:
	.loc 1 239 0
	ldr	r3, .L65+12
.LPIC29:
	add	r3, pc, r3
	str	r3, [r4, #168]
	ldmfd	sp!, {r4, pc}
.L59:
	.loc 1 242 0
	ldr	r3, .L65+16
.LPIC30:
	add	r3, pc, r3
	str	r3, [r4, #168]
	.loc 1 243 0
	ldmfd	sp!, {r4, pc}
.L60:
	.loc 1 245 0
	mov	r3, #4
	str	r3, [r4, #172]
	.loc 1 246 0
	ldmfd	sp!, {r4, pc}
.L61:
	.loc 1 248 0
	mov	r3, #8
	str	r3, [r4, #172]
.L54:
	ldmfd	sp!, {r4, pc}
.L66:
	.align	2
.L65:
	.word	scale_samples_u8_small-(.LPIC26+8)
	.word	scale_samples_u8-(.LPIC27+8)
	.word	scale_samples_s16_small-(.LPIC28+8)
	.word	scale_samples_s16-(.LPIC29+8)
	.word	scale_samples_s32-(.LPIC30+8)
	.cfi_endproc
.LFE65:
	.size	volume_init, .-volume_init
	.global	__aeabi_dcmpun
	.global	__aeabi_dmul
	.global	__aeabi_dadd
	.global	__aeabi_d2iz
	.global	__aeabi_i2d
	.text
	.align	2
	.type	set_volume, %function
set_volume:
.LFB66:
	.loc 1 257 0
	.cfi_startproc
	@ args = 0, pretend = 0, frame = 0
	@ frame_needed = 0, uses_anonymous_args = 0
.LVL65:
	stmfd	sp!, {r4, r5, r6, r7, r8, r9, lr}
	.cfi_def_cfa_offset 28
	.cfi_offset 4, -28
	.cfi_offset 5, -24
	.cfi_offset 6, -20
	.cfi_offset 7, -16
	.cfi_offset 8, -12
	.cfi_offset 9, -8
	.cfi_offset 14, -4
	.loc 1 258 0
	ldr	r4, [r0, #36]
.LVL66:
	.loc 1 257 0
	sub	sp, sp, #36
	.cfi_def_cfa_offset 64
	.loc 1 260 0
	mov	r2, #0
	.loc 1 257 0
	mov	r5, r0
	.loc 1 260 0
	add	r1, r4, #24
	ldr	r0, [r4, #20]
.LVL67:
	bl	av_expr_eval(PLT)
.LVL68:
	mov	r2, r0
	mov	r3, r1
	strd	r2, [r4, #144]
	.loc 1 261 0
	bl	__aeabi_dcmpun(PLT)
.LVL69:
	cmp	r0, #0
	beq	.L68
	.loc 1 262 0
	ldr	r3, [r4, #12]
	.loc 1 263 0
	mov	r0, r5
	.loc 1 262 0
	cmp	r3, #0
	bne	.L70
	.loc 1 263 0
	ldr	r2, .L76
	mov	r1, #16
.LPIC31:
	add	r2, pc, r2
	bl	av_log(PLT)
.LVL70:
	.loc 1 264 0
	mvn	r0, #21
.L71:
	.loc 1 286 0
	add	sp, sp, #36
	.cfi_remember_state
	.cfi_def_cfa_offset 28
	@ sp needed
	ldmfd	sp!, {r4, r5, r6, r7, r8, r9, pc}
.LVL71:
.L70:
	.cfi_restore_state
	.loc 1 266 0
	ldr	r2, .L76+4
	mov	r1, #24
.LPIC32:
	add	r2, pc, r2
	bl	av_log(PLT)
.LVL72:
	.loc 1 267 0
	mov	r2, #0
	mov	r3, #0
	strd	r2, [r4, #144]
.L68:
	.loc 1 270 0
	ldrd	r6, [r4, #144]
	.loc 1 272 0
	ldrd	r2, [r4, #24]
	.loc 1 270 0
	strd	r6, [r4, #112]
	.loc 1 272 0
	strd	r2, [sp]
	ldrd	r2, [r4, #96]
	ldr	ip, .L76+8
	strd	r2, [sp, #8]
	ldrd	r2, [r4, #64]
.LPIC34:
	add	ip, pc, ip
	strd	r2, [sp, #16]
	ldr	r2, [r4, #8]
	mov	r0, r5
	add	r3, ip, r2, asl #2
	ldr	r2, .L76+12
	ldr	r3, [r3, #52]
	str	r3, [sp, #24]
	mov	r1, #40
.LPIC33:
	add	r2, pc, r2
	bl	av_log(PLT)
.LVL73:
	.loc 1 276 0
	ldr	r3, [r4, #8]
	cmp	r3, #0
	beq	.L75
.L72:
	.loc 1 282 0
	ldrd	r8, [r4, #144]
	.loc 1 281 0
	ldr	r6, .L76+16
	.loc 1 282 0
	mov	r0, r8
	mov	r1, r9
	bl	log10(PLT)
.LVL74:
	.loc 1 281 0
	ldr	r3, .L76+20
	mov	r2, #0
	strd	r8, [sp]
	bl	__aeabi_dmul(PLT)
.LVL75:
.LPIC36:
	add	r6, pc, r6
	mov	r2, r6
	strd	r0, [sp, #8]
	mov	r0, r5
	mov	r1, #40
	bl	av_log(PLT)
.LVL76:
	.loc 1 284 0
	mov	r0, r4
	bl	volume_init(PLT)
.LVL77:
	.loc 1 285 0
	mov	r0, #0
	b	.L71
.L75:
	.loc 1 277 0
	ldrd	r0, [r4, #144]
	mov	r2, #0
	ldr	r3, .L76+24
	bl	__aeabi_dmul(PLT)
.LVL78:
	mov	r2, #0
	ldr	r3, .L76+28
	bl	__aeabi_dadd(PLT)
.LVL79:
	bl	__aeabi_d2iz(PLT)
.LVL80:
	str	r0, [r4, #152]
	mov	r6, r0
	.loc 1 278 0
	bl	__aeabi_i2d(PLT)
.LVL81:
	mov	r2, #0
	ldr	r3, .L76+32
	bl	__aeabi_dmul(PLT)
.LVL82:
	.loc 1 279 0
	ldr	r2, .L76+36
	mov	r3, r6
.LPIC35:
	add	r2, pc, r2
	.loc 1 278 0
	strd	r0, [r4, #144]
	.loc 1 279 0
	mov	r0, r5
	mov	r1, #40
	bl	av_log(PLT)
.LVL83:
	b	.L72
.L77:
	.align	2
.L76:
	.word	.LC1-(.LPIC31+8)
	.word	.LC2-(.LPIC32+8)
	.word	.LANCHOR0-(.LPIC34+8)
	.word	.LC3-(.LPIC33+8)
	.word	.LC5-(.LPIC36+8)
	.word	1077149696
	.word	1081081856
	.word	1071644672
	.word	1064304640
	.word	.LC4-(.LPIC35+8)
	.cfi_endproc
.LFE66:
	.size	set_volume, .-set_volume
	.global	__aeabi_i2f
	.global	__aeabi_fdiv
	.global	__aeabi_f2d
	.global	__aeabi_ddiv
	.global	__aeabi_ui2f
	.global	__aeabi_dcmplt
	.global	__aeabi_l2d
	.global	__aeabi_dcmpeq
	.global	__aeabi_d2f
	.align	2
	.type	filter_frame, %function
filter_frame:
.LFB69:
	.loc 1 341 0
	.cfi_startproc
	@ args = 0, pretend = 0, frame = 32
	@ frame_needed = 0, uses_anonymous_args = 0
.LVL84:
	stmfd	sp!, {r4, r5, r6, r7, r8, r9, r10, fp, lr}
	.cfi_def_cfa_offset 36
	.cfi_offset 4, -36
	.cfi_offset 5, -32
	.cfi_offset 6, -28
	.cfi_offset 7, -24
	.cfi_offset 8, -20
	.cfi_offset 9, -16
	.cfi_offset 10, -12
	.cfi_offset 11, -8
	.cfi_offset 14, -4
	.loc 1 342 0
	ldr	r5, [r0, #8]
.LVL85:
	.loc 1 341 0
	sub	sp, sp, #44
	.cfi_def_cfa_offset 80
	.loc 1 344 0
	ldr	r2, [r5, #28]
	.loc 1 345 0
	mov	r3, r1
	.loc 1 341 0
	str	r1, [sp, #28]
	mov	r4, r0
	.loc 1 348 0
	mov	r0, r1
.LVL86:
	mov	r1, #5
.LVL87:
	.loc 1 344 0
	ldr	r9, [r2]
	.loc 1 343 0
	ldr	r10, [r5, #36]
.LVL88:
	.loc 1 345 0
	ldr	r8, [r3, #76]
.LVL89:
	.loc 1 348 0
	bl	av_frame_get_side_data(PLT)
.LVL90:
	.loc 1 351 0
	cmp	r0, #0
	beq	.L79
	.loc 1 351 0 is_stmt 0 discriminator 1
	ldr	r3, [r10, #120]
	cmp	r3, #1
	beq	.L79
	.loc 1 352 0 is_stmt 1
	cmp	r3, #0
	bne	.L142
.LVL91:
.L80:
	.loc 1 386 0
	ldr	r0, [sp, #28]
	mov	r1, #5
	bl	av_frame_remove_side_data(PLT)
.LVL92:
.L79:
	.loc 1 389 0
	ldrd	r0, [r10, #80]
	mov	r2, r0
	mov	r3, r1
	bl	__aeabi_dcmpun(PLT)
.LVL93:
	.loc 1 390 0
	ldr	fp, [sp, #28]
	ldrd	r6, [fp, #104]
	.loc 1 389 0
	cmp	r0, #0
	bne	.L143
.L87:
	.loc 1 393 0
	cmp	r7, #-2147483648
	cmpeq	r6, #0
	beq	.L89
	.loc 1 393 0 is_stmt 0 discriminator 1
	mov	r0, r6
	mov	r1, r7
	bl	__aeabi_l2d(PLT)
.LVL94:
	mov	r6, r0
	mov	r7, r1
	.loc 1 393 0 discriminator 4
	strd	r6, [r10, #64]
.LVL95:
.LBB42:
.LBB43:
	.file 4 "./libavutil/rational.h"
	.loc 4 81 0 is_stmt 1
	ldr	r0, [r4, #56]
	bl	__aeabi_i2d(PLT)
.LVL96:
	strd	r0, [sp, #8]
	ldr	r0, [r4, #60]
.LVL97:
	bl	__aeabi_i2d(PLT)
.LVL98:
	mov	r2, r0
	mov	r3, r1
	ldrd	r0, [sp, #8]
	bl	__aeabi_ddiv(PLT)
.LVL99:
	mov	r2, r0
	mov	r3, r1
.LBE43:
.LBE42:
	.loc 1 394 0 discriminator 1
	mov	r0, r6
	mov	r1, r7
	bl	__aeabi_dmul(PLT)
.LVL100:
.L111:
	.loc 1 394 0 is_stmt 0 discriminator 4
	strd	r0, [r10, #96]
	.loc 1 395 0 is_stmt 1
	ldrd	r0, [r4, #160]
	bl	__aeabi_l2d(PLT)
.LVL101:
	strd	r0, [r10, #24]
	.loc 1 397 0
	mov	r0, fp
	bl	av_frame_get_pkt_pos(PLT)
.LVL102:
	.loc 1 398 0
	mvn	r3, #0
	mvn	r2, #0
	cmp	r1, r3
	cmpeq	r0, r2
	beq	.L114
	.loc 1 398 0 is_stmt 0 discriminator 1
	bl	__aeabi_l2d(PLT)
.LVL103:
.L90:
	.loc 1 399 0 is_stmt 1
	ldr	r3, [r10, #12]
	.loc 1 398 0 discriminator 4
	strd	r0, [r10, #56]
	.loc 1 399 0
	cmp	r3, #1
	beq	.L144
.L91:
	.loc 1 402 0
	ldrd	r0, [r10, #144]
	mov	r2, #0
	ldr	r3, .L147
	bl	__aeabi_dcmpeq(PLT)
.LVL104:
	cmp	r0, #0
	bne	.L92
	.loc 1 402 0 is_stmt 0 discriminator 1
	ldr	r3, [r10, #152]
	cmp	r3, #256
	beq	.L92
	.loc 1 408 0 is_stmt 1
	ldr	r0, [sp, #28]
	bl	av_frame_is_writable(PLT)
.LVL105:
	cmp	r0, #0
	beq	.L95
	.loc 1 409 0
	ldr	r3, [r10, #8]
	cmp	r3, #0
	bne	.L96
	.loc 1 409 0 is_stmt 0 discriminator 1
	ldr	r2, [r10, #152]
	cmp	r2, #0
	ble	.L95
.L96:
	.loc 1 410 0 is_stmt 1
	ldr	r4, [sp, #28]
.LVL106:
	str	r4, [sp, #36]
.L97:
	.loc 1 423 0
	cmp	r3, #0
	bne	.L100
	.loc 1 423 0 is_stmt 0 discriminator 1
	ldr	r3, [r10, #152]
	cmp	r3, #0
	ble	.L101
.L100:
.LBB44:
	.loc 1 426 0 is_stmt 1
	ldr	r0, [r4, #80]
	bl	av_sample_fmt_is_planar(PLT)
.LVL107:
	.loc 1 431 0
	ldr	r4, [r10, #8]
	.loc 1 426 0
	cmp	r0, #0
	.loc 1 429 0
	ldreq	r3, [r10, #156]
	ldreq	r2, [r10, #172]
	.loc 1 427 0
	ldrne	r3, [r10, #172]
	.loc 1 429 0
	mlaeq	r3, r8, r3, r2
	.loc 1 427 0
	addne	r5, r3, r8
.LVL108:
	subne	r5, r5, #1
	rsbne	r3, r3, #0
	.loc 1 429 0
	rsbeq	r5, r2, #0
	subeq	r3, r3, #1
	.loc 1 431 0
	cmp	r4, #0
	.loc 1 429 0
	and	r5, r5, r3
.LVL109:
	.loc 1 431 0
	bne	.L104
.LVL110:
	.loc 1 432 0 discriminator 1
	ldr	r3, [r10, #160]
	cmp	r3, #0
	ble	.L141
.LVL111:
.L105:
	.loc 1 433 0
	ldr	r2, [sp, #36]
	.loc 1 434 0
	ldr	r3, [sp, #28]
	.loc 1 433 0
	ldr	r1, [r2, #64]
	ldr	r3, [r3, #64]
	ldr	r0, [r1, r4, asl #2]
	ldr	ip, [r10, #168]
	ldr	r1, [r3, r4, asl #2]
	mov	r2, r5
	ldr	r3, [r10, #152]
	blx	ip
.LVL112:
	.loc 1 432 0 discriminator 1
	ldr	r3, [r10, #160]
	.loc 1 432 0 is_stmt 0 discriminator 3
	add	r4, r4, #1
.LVL113:
	.loc 1 432 0 discriminator 1
	cmp	r3, r4
	bgt	.L105
.LVL114:
.L141:
	ldr	r4, [sp, #28]
.LVL115:
.L101:
.LBE44:
	.loc 1 454 0 is_stmt 1
	ldr	r3, [sp, #36]
	cmp	r3, r4
	beq	.L94
	.loc 1 455 0
	add	r0, sp, #28
.LVL116:
	bl	av_frame_free(PLT)
.LVL117:
	ldr	r4, [sp, #36]
	b	.L94
.LVL118:
.L92:
	.loc 1 403 0
	ldr	r4, [sp, #28]
.LVL119:
	str	r4, [sp, #36]
.LVL120:
.L94:
	.loc 1 458 0
	ldr	r0, [r4, #76]
	bl	__aeabi_i2d(PLT)
.LVL121:
	mov	r2, r0
	mov	r3, r1
	ldrd	r0, [r10, #40]
	bl	__aeabi_dadd(PLT)
.LVL122:
	strd	r0, [r10, #40]
	.loc 1 459 0
	mov	r0, r9
	mov	r1, r4
	bl	ff_filter_frame(PLT)
.LVL123:
.L139:
	.loc 1 460 0
	add	sp, sp, #44
	.cfi_remember_state
	.cfi_def_cfa_offset 36
	@ sp needed
	ldmfd	sp!, {r4, r5, r6, r7, r8, r9, r10, fp, pc}
.LVL124:
.L114:
	.cfi_restore_state
	.loc 1 398 0 discriminator 2
	mov	r0, #0
.LVL125:
	ldr	r1, .L147+4
	b	.L90
.L89:
	.loc 1 393 0 discriminator 4
	ldr	r1, .L147+4
	mov	r0, #0
	strd	r0, [r10, #64]
	b	.L111
.L95:
	.loc 1 412 0
	mov	r0, r4
	mov	r1, r8
	bl	ff_get_audio_buffer(PLT)
.LVL126:
	.loc 1 413 0
	cmp	r0, #0
	.loc 1 412 0
	str	r0, [sp, #36]
	.loc 1 413 0
	beq	.L115
	.loc 1 415 0
	ldr	r1, [sp, #28]
	bl	av_frame_copy_props(PLT)
.LVL127:
	.loc 1 416 0
	subs	r4, r0, #0
.LVL128:
	blt	.L145
	ldr	r3, [r10, #8]
	ldr	r4, [sp, #28]
	b	.L97
.LVL129:
.L144:
	.loc 1 400 0
	mov	r0, r5
	bl	set_volume(PLT)
.LVL130:
	b	.L91
.L143:
	.loc 1 390 0
	cmp	r7, #-2147483648
	cmpeq	r6, #0
	beq	.L88
	.loc 1 390 0 is_stmt 0 discriminator 1
	mov	r0, r6
	mov	r1, r7
	bl	__aeabi_l2d(PLT)
.LVL131:
	.loc 1 390 0 discriminator 4
	mov	r2, r0
	mov	r3, r1
	strd	r2, [r10, #80]
.LVL132:
	strd	r0, [sp, #8]
.LBB45:
.LBB46:
	.loc 4 81 0 is_stmt 1
	ldr	r0, [r4, #56]
	bl	__aeabi_i2d(PLT)
.LVL133:
	strd	r0, [sp, #16]
	ldr	r0, [r4, #60]
.LVL134:
	bl	__aeabi_i2d(PLT)
.LVL135:
	mov	r2, r0
	mov	r3, r1
	ldrd	r0, [sp, #16]
	bl	__aeabi_ddiv(PLT)
.LVL136:
	mov	r2, r0
	mov	r3, r1
.LBE46:
.LBE45:
	.loc 1 391 0 discriminator 1
	ldrd	r0, [sp, #8]
	bl	__aeabi_dmul(PLT)
.LVL137:
.L110:
	.loc 1 391 0 is_stmt 0 discriminator 4
	strd	r0, [r10, #88]
	b	.L87
.LVL138:
.L104:
.LBB47:
	.loc 1 437 0 is_stmt 1
	ldr	r0, [r10, #164]
	bl	av_get_packed_sample_fmt(PLT)
.LVL139:
	.loc 1 438 0 discriminator 1
	ldr	r3, [r10, #160]
	.loc 1 437 0
	cmp	r0, #3
	beq	.L106
.LVL140:
	.loc 1 444 0 discriminator 1
	cmp	r3, #0
	movgt	r4, #0
	ble	.L141
.LVL141:
.L107:
	.loc 1 445 0
	ldr	r2, [sp, #36]
	.loc 1 446 0
	ldr	r3, [sp, #28]
	.loc 1 445 0
	ldr	r2, [r2, #64]
	ldr	r3, [r3, #64]
	ldr	ip, [r10, #4]
	ldr	r0, [r2, r4, asl #2]
	ldr	r1, [r3, r4, asl #2]
	ldrd	r2, [r10, #144]
	str	r5, [sp]
	ldr	ip, [ip, #12]
	blx	ip
.LVL142:
	.loc 1 444 0 discriminator 1
	ldr	r3, [r10, #160]
	.loc 1 444 0 is_stmt 0 discriminator 3
	add	r4, r4, #1
.LVL143:
	.loc 1 444 0 discriminator 1
	cmp	r3, r4
	bgt	.L107
	b	.L141
.LVL144:
.L106:
	.loc 1 438 0 is_stmt 1 discriminator 1
	cmp	r3, #0
	ble	.L141
	mov	r4, #0
.LVL145:
.L109:
	.loc 1 439 0
	ldr	r2, [sp, #36]
	.loc 1 440 0
	ldr	r3, [sp, #28]
	.loc 1 439 0
	ldr	r2, [r2, #64]
	ldr	r3, [r3, #64]
	ldrd	r0, [r10, #144]
	ldr	r7, [r2, r4, asl #2]
	ldr	r8, [r3, r4, asl #2]
	bl	__aeabi_d2f(PLT)
.LVL146:
	ldr	r6, [r10, #4]
	mov	r1, r8
	ldr	ip, [r6, #8]
	mov	r3, r5
	.loc 1 438 0 discriminator 3
	add	r4, r4, #1
.LVL147:
	.loc 1 439 0
	mov	r2, r0
	mov	r0, r7
	blx	ip
.LVL148:
	.loc 1 438 0 discriminator 1
	ldr	r2, [r10, #160]
	cmp	r2, r4
	bgt	.L109
	b	.L141
.LVL149:
.L88:
.LBE47:
	.loc 1 390 0 discriminator 4
	ldr	r1, .L147+4
	mov	r0, #0
	strd	r0, [r10, #80]
	b	.L110
.LVL150:
.L145:
	.loc 1 417 0
	add	r0, sp, #36
.LVL151:
	bl	av_frame_free(PLT)
.LVL152:
	.loc 1 418 0
	add	r0, sp, #28
.LVL153:
	bl	av_frame_free(PLT)
.LVL154:
	.loc 1 419 0
	mov	r0, r4
	b	.L139
.LVL155:
.L115:
	.loc 1 414 0
	mvn	r0, #11
	b	.L139
.LVL156:
.L142:
.LBB48:
	.loc 1 358 0
	cmp	r3, #2
	.loc 1 353 0
	ldr	r3, [r0, #4]
.LVL157:
	.loc 1 358 0
	beq	.L146
.LVL158:
.L81:
	.loc 1 364 0
	ldr	r0, [r3, #8]
	cmp	r0, #-2147483648
	beq	.L83
.LVL159:
	.loc 1 367 0
	ldr	fp, [r3, #12]
	.loc 1 355 0
	ldr	r3, .L147+8
.LVL160:
	cmp	fp, #0
	moveq	fp, r3
.LVL161:
.L82:
	.loc 1 373 0
	bl	__aeabi_i2f(PLT)
.LVL162:
	ldr	r1, .L147+12
	bl	__aeabi_fdiv(PLT)
.LVL163:
	.loc 1 376 0
	bl	__aeabi_f2d(PLT)
.LVL164:
	ldr	r2, .L147+16
.LPIC38:
	add	r2, pc, r2
	mov	r6, r0
	mov	r7, r1
	strd	r6, [sp]
	mov	r1, #40
	ldr	r0, [r4, #8]
	bl	av_log(PLT)
.LVL165:
	.loc 1 379 0
	ldrd	r2, [r10, #128]
	mov	r0, r6
	mov	r1, r7
	bl	__aeabi_dadd(PLT)
.LVL166:
	mov	r2, #0
	ldr	r3, .L147+20
	bl	__aeabi_ddiv(PLT)
.LVL167:
.LBB49:
.LBB50:
	.file 5 "./libavutil/internal.h"
	.loc 5 308 0
	ldr	r3, .L147+24
	ldr	r2, .L147+28
	bl	__aeabi_dmul(PLT)
.LVL168:
	bl	exp2(PLT)
.LVL169:
.LBE50:
.LBE49:
	.loc 1 380 0
	ldr	r3, [r10, #136]
	cmp	r3, #0
.LBB52:
.LBB51:
	.loc 5 308 0
	mov	r6, r0
	mov	r7, r1
.LBE51:
.LBE52:
	.loc 1 379 0
	strd	r6, [r10, #144]
	.loc 1 380 0
	beq	.L84
	.loc 1 374 0
	mov	r0, fp
	bl	__aeabi_ui2f(PLT)
.LVL170:
	ldr	r1, .L147+12
	bl	__aeabi_fdiv(PLT)
.LVL171:
	.loc 1 381 0
	bl	__aeabi_f2d(PLT)
.LVL172:
	mov	r2, r0
	mov	r3, r1
	mov	r0, #0
	ldr	r1, .L147
	bl	__aeabi_ddiv(PLT)
.LVL173:
	mov	r2, r6
	mov	r3, r7
	strd	r0, [sp, #8]
	bl	__aeabi_dcmplt(PLT)
.LVL174:
	cmp	r0, #0
	.loc 1 381 0 is_stmt 0 discriminator 2
	streqd	r6, [sp, #8]
.L85:
	.loc 1 381 0 discriminator 4
	ldrd	r2, [sp, #8]
	strd	r2, [r10, #144]
.L84:
	.loc 1 382 0 is_stmt 1
	ldrd	r0, [r10, #144]
	mov	r2, #0
	ldr	r3, .L147+32
	bl	__aeabi_dmul(PLT)
.LVL175:
	mov	r2, #0
	ldr	r3, .L147+36
	bl	__aeabi_dadd(PLT)
.LVL176:
	bl	__aeabi_d2iz(PLT)
.LVL177:
	str	r0, [r10, #152]
	.loc 1 384 0
	mov	r0, r10
	bl	volume_init(PLT)
.LVL178:
	b	.L80
.LVL179:
.L83:
	.loc 1 370 0
	ldr	r2, .L147+40
	.loc 1 355 0
	ldr	fp, .L147+8
	.loc 1 370 0
	ldr	r0, [r4, #8]
	mov	r1, #24
.LPIC37:
	add	r2, pc, r2
	bl	av_log(PLT)
.LVL180:
	.loc 1 354 0
	mov	r0, fp
	b	.L82
.LVL181:
.L146:
	.loc 1 359 0
	ldr	r0, [r3]
.LVL182:
	.loc 1 358 0 discriminator 1
	cmp	r0, #-2147483648
	beq	.L81
.LVL183:
	.loc 1 362 0
	ldr	fp, [r3, #4]
	.loc 1 355 0
	ldr	r3, .L147+8
.LVL184:
	cmp	fp, #0
	moveq	fp, r3
	b	.L82
.L148:
	.align	2
.L147:
	.word	1072693248
	.word	2146959360
	.word	100000
	.word	1203982336
	.word	.LC7-(.LPIC38+8)
	.word	1077149696
	.word	1074434895
	.word	158966641
	.word	1081081856
	.word	1071644672
	.word	.LC6-(.LPIC37+8)
.LBE48:
	.cfi_endproc
.LFE69:
	.size	filter_frame, .-filter_frame
	.align	2
	.type	query_formats, %function
query_formats:
.LFB59:
	.loc 1 131 0
	.cfi_startproc
	@ args = 0, pretend = 0, frame = 0
	@ frame_needed = 0, uses_anonymous_args = 0
.LVL185:
	stmfd	sp!, {r3, r4, r5, lr}
	.cfi_def_cfa_offset 16
	.cfi_offset 3, -16
	.cfi_offset 4, -12
	.cfi_offset 5, -8
	.cfi_offset 14, -4
	.loc 1 131 0
	mov	r4, r0
	.loc 1 132 0
	ldr	r5, [r0, #36]
.LVL186:
	.loc 1 158 0
	bl	ff_all_channel_counts(PLT)
.LVL187:
	.loc 1 159 0
	subs	r1, r0, #0
	beq	.L152
	.loc 1 161 0
	mov	r0, r4
.LVL188:
	bl	ff_set_common_channel_layouts(PLT)
.LVL189:
	.loc 1 162 0
	cmp	r0, #0
	ldmltfd	sp!, {r3, r4, r5, pc}
	.loc 1 165 0
	ldr	r3, [r5, #8]
	ldr	r0, .L162
.LVL190:
	rsb	r3, r3, r3, asl #3
.LPIC39:
	add	r0, pc, r0
	add	r0, r0, r3, asl #2
	bl	ff_make_format_list(PLT)
.LVL191:
	.loc 1 166 0
	subs	r1, r0, #0
	beq	.L152
	.loc 1 168 0
	mov	r0, r4
.LVL192:
	bl	ff_set_common_formats(PLT)
.LVL193:
	.loc 1 169 0
	cmp	r0, #0
	ldmltfd	sp!, {r3, r4, r5, pc}
.LVL194:
.LBB55:
.LBB56:
	.loc 1 172 0
	bl	ff_all_samplerates(PLT)
.LVL195:
	.loc 1 173 0
	subs	r1, r0, #0
	beq	.L152
	.loc 1 175 0
	mov	r0, r4
.LVL196:
.LBE56:
.LBE55:
	.loc 1 176 0
	ldmfd	sp!, {r3, r4, r5, lr}
	.cfi_remember_state
	.cfi_restore 14
	.cfi_restore 5
	.cfi_restore 4
	.cfi_restore 3
	.cfi_def_cfa_offset 0
.LVL197:
.LBB58:
.LBB57:
	.loc 1 175 0
	b	ff_set_common_samplerates(PLT)
.LVL198:
.L152:
	.cfi_restore_state
.LBE57:
.LBE58:
	.loc 1 160 0
	mvn	r0, #11
	ldmfd	sp!, {r3, r4, r5, pc}
.L163:
	.align	2
.L162:
	.word	.LANCHOR1-(.LPIC39+8)
	.cfi_endproc
.LFE59:
	.size	query_formats, .-query_formats
	.align	2
	.type	process_command, %function
process_command:
.LFB68:
	.loc 1 322 0
	.cfi_startproc
	@ args = 8, pretend = 0, frame = 0
	@ frame_needed = 0, uses_anonymous_args = 0
.LVL199:
	stmfd	sp!, {r4, r5, r6, r7, r8, r9, lr}
	.cfi_def_cfa_offset 28
	.cfi_offset 4, -28
	.cfi_offset 5, -24
	.cfi_offset 6, -20
	.cfi_offset 7, -16
	.cfi_offset 8, -12
	.cfi_offset 9, -8
	.cfi_offset 14, -4
	mov	r6, r0
	.loc 1 326 0
	mov	r0, r1
.LVL200:
	ldr	r1, .L172
.LVL201:
	.loc 1 322 0
	sub	sp, sp, #28
	.cfi_def_cfa_offset 56
	.loc 1 326 0
.LPIC40:
	add	r1, pc, r1
	.loc 1 322 0
	mov	r8, r2
	.loc 1 326 0
	bl	strcmp(PLT)
.LVL202:
	.loc 1 323 0
	ldr	r7, [r6, #36]
.LVL203:
	.loc 1 326 0
	subs	r5, r0, #0
	.loc 1 324 0
	mvnne	r4, #37
	.loc 1 326 0
	beq	.L170
.LVL204:
.L165:
	.loc 1 334 0
	mov	r0, r4
	add	sp, sp, #28
	.cfi_remember_state
	.cfi_def_cfa_offset 28
	@ sp needed
	ldmfd	sp!, {r4, r5, r6, r7, r8, r9, pc}
.LVL205:
.L170:
	.cfi_restore_state
.LBB61:
.LBB62:
	.loc 1 98 0
	ldr	r2, .L172+4
	.loc 1 96 0
	mov	r0, r7
	ldr	r9, [r0, #20]!
.LVL206:
	.loc 1 98 0
	mov	r1, r8
	str	r5, [sp]
	str	r5, [sp, #4]
	str	r5, [sp, #8]
	str	r5, [sp, #12]
	str	r6, [sp, #16]
.LPIC41:
	add	r2, pc, r2
	mov	r3, r5
	bl	av_expr_parse(PLT)
.LVL207:
	.loc 1 100 0
	subs	r4, r0, #0
	blt	.L171
	.loc 1 107 0
	mov	r0, r9
.LVL208:
	bl	av_expr_free(PLT)
.LVL209:
.LBE62:
.LBE61:
	.loc 1 329 0
	ldr	r4, [r7, #12]
.LVL210:
	cmp	r4, #0
	movne	r4, r5
	bne	.L165
	.loc 1 330 0
	mov	r0, r6
	bl	set_volume(PLT)
.LVL211:
	b	.L165
.LVL212:
.L171:
.LBB64:
.LBB63:
	.loc 1 101 0
	ldr	r2, .L172+8
	mov	r0, r6
.LVL213:
	mov	r3, r8
	mov	r1, #16
.LPIC42:
	add	r2, pc, r2
	bl	av_log(PLT)
.LVL214:
	.loc 1 103 0
	str	r9, [r7, #20]
.LVL215:
	b	.L165
.L173:
	.align	2
.L172:
	.word	.LC8-(.LPIC40+8)
	.word	.LANCHOR0-(.LPIC41+8)
	.word	.LC0-(.LPIC42+8)
.LBE63:
.LBE64:
	.cfi_endproc
.LFE68:
	.size	process_command, .-process_command
	.align	2
	.type	config_output, %function
config_output:
.LFB67:
	.loc 1 289 0
	.cfi_startproc
	@ args = 0, pretend = 0, frame = 0
	@ frame_needed = 0, uses_anonymous_args = 0
.LVL216:
	stmfd	sp!, {r4, r5, r6, r7, r8, r9, r10, lr}
	.cfi_def_cfa_offset 32
	.cfi_offset 4, -32
	.cfi_offset 5, -28
	.cfi_offset 6, -24
	.cfi_offset 7, -20
	.cfi_offset 8, -16
	.cfi_offset 9, -12
	.cfi_offset 10, -8
	.cfi_offset 14, -4
	.loc 1 290 0
	ldr	r5, [r0]
.LVL217:
	.loc 1 289 0
	sub	sp, sp, #32
	.cfi_def_cfa_offset 64
	.loc 1 292 0
	ldr	r3, [r5, #16]
	.loc 1 291 0
	ldr	r10, [r5, #36]
.LVL218:
	.loc 1 292 0
	ldr	r4, [r3]
.LVL219:
	.loc 1 295 0
	ldr	r3, [r4, #152]
	.loc 1 294 0
	ldr	r0, [r4, #52]
.LVL220:
	str	r0, [r10, #164]
	.loc 1 295 0
	str	r3, [r10, #156]
	.loc 1 296 0
	bl	av_sample_fmt_is_planar(PLT)
.LVL221:
	.loc 1 306 0
	ldr	r3, .L185
	mov	r2, #0
	strd	r2, [r10, #112]
	.loc 1 305 0
	strd	r2, [r10, #96]
	.loc 1 304 0
	strd	r2, [r10, #88]
	.loc 1 303 0
	strd	r2, [r10, #80]
	.loc 1 302 0
	strd	r2, [r10, #64]
	.loc 1 301 0
	strd	r2, [r10, #56]
	.loc 1 300 0
	strd	r2, [r10, #48]
	.loc 1 299 0
	strd	r2, [r10, #40]
	.loc 1 298 0
	strd	r2, [r10, #24]
	.loc 1 296 0
	cmp	r0, #0
	.loc 1 296 0 is_stmt 0 discriminator 1
	ldrne	r1, [r10, #156]
	.loc 1 296 0 discriminator 2
	moveq	r1, #1
	.loc 1 308 0 is_stmt 1
	ldr	r0, [r4, #152]
	.loc 1 296 0 discriminator 4
	str	r1, [r10, #160]
	.loc 1 308 0
	bl	__aeabi_i2d(PLT)
.LVL222:
	mov	r6, r0
	mov	r7, r1
.LBB69:
.LBB70:
	.loc 4 81 0
	ldr	r0, [r4, #56]
.LBE70:
.LBE69:
	.loc 1 308 0
	strd	r6, [r10, #32]
.LVL223:
.LBB72:
.LBB71:
	.loc 4 81 0
	bl	__aeabi_i2d(PLT)
.LVL224:
	mov	r8, r0
	ldr	r0, [r4, #60]
.LVL225:
	mov	r9, r1
	bl	__aeabi_i2d(PLT)
.LVL226:
	mov	r2, r0
	mov	r3, r1
	mov	r0, r8
	mov	r1, r9
	bl	__aeabi_ddiv(PLT)
.LVL227:
	mov	r8, r0
	mov	r9, r1
.LBE71:
.LBE72:
	.loc 1 310 0
	ldr	r0, [r4, #48]
	.loc 1 309 0
	strd	r8, [r10, #104]
	.loc 1 310 0
	bl	__aeabi_i2d(PLT)
.LVL228:
	mov	r3, r1
	mov	r2, r0
	.loc 1 312 0
	ldr	r0, [r4]
	.loc 1 310 0
	strd	r2, [r10, #72]
	.loc 1 312 0
	strd	r2, [sp, #8]
	ldr	r2, .L185+4
	mov	r1, #40
.LPIC43:
	add	r2, pc, r2
	strd	r6, [sp, #16]
	strd	r8, [sp]
	bl	av_log(PLT)
.LVL229:
.LBB73:
.LBB74:
	.loc 1 258 0
	ldr	r4, [r5, #36]
.LVL230:
	.loc 1 260 0
	mov	r2, #0
	ldr	r0, [r4, #20]
	add	r1, r4, #24
	bl	av_expr_eval(PLT)
.LVL231:
	mov	r2, r0
	mov	r3, r1
	strd	r2, [r4, #144]
	.loc 1 261 0
	bl	__aeabi_dcmpun(PLT)
.LVL232:
	cmp	r0, #0
	beq	.L176
	.loc 1 262 0
	ldr	r3, [r4, #12]
	.loc 1 263 0
	mov	r0, r5
	.loc 1 262 0
	cmp	r3, #0
	bne	.L178
	.loc 1 263 0
	ldr	r2, .L185+8
	mov	r1, #16
.LPIC44:
	add	r2, pc, r2
	bl	av_log(PLT)
.LVL233:
	.loc 1 264 0
	mvn	r0, #21
.L179:
.LBE74:
.LBE73:
	.loc 1 318 0
	add	sp, sp, #32
	.cfi_remember_state
	.cfi_def_cfa_offset 32
	@ sp needed
	ldmfd	sp!, {r4, r5, r6, r7, r8, r9, r10, pc}
.LVL234:
.L178:
	.cfi_restore_state
.LBB76:
.LBB75:
	.loc 1 266 0
	ldr	r2, .L185+12
	mov	r1, #24
.LPIC45:
	add	r2, pc, r2
	bl	av_log(PLT)
.LVL235:
	.loc 1 267 0
	mov	r2, #0
	mov	r3, #0
	strd	r2, [r4, #144]
.L176:
	.loc 1 270 0
	ldrd	r6, [r4, #144]
	.loc 1 272 0
	ldrd	r2, [r4, #24]
	.loc 1 270 0
	strd	r6, [r4, #112]
	.loc 1 272 0
	strd	r2, [sp]
	ldrd	r2, [r4, #96]
	ldr	ip, .L185+16
	strd	r2, [sp, #8]
	ldrd	r2, [r4, #64]
.LPIC47:
	add	ip, pc, ip
	strd	r2, [sp, #16]
	ldr	r2, [r4, #8]
	mov	r0, r5
	add	r3, ip, r2, asl #2
	ldr	r2, .L185+20
	ldr	r3, [r3, #52]
	str	r3, [sp, #24]
	mov	r1, #40
.LPIC46:
	add	r2, pc, r2
	bl	av_log(PLT)
.LVL236:
	.loc 1 276 0
	ldr	r3, [r4, #8]
	cmp	r3, #0
	beq	.L184
.L180:
	.loc 1 282 0
	ldrd	r8, [r4, #144]
	.loc 1 281 0
	ldr	r6, .L185+24
	.loc 1 282 0
	mov	r0, r8
	mov	r1, r9
	bl	log10(PLT)
.LVL237:
	.loc 1 281 0
	ldr	r3, .L185+28
	mov	r2, #0
	strd	r8, [sp]
	bl	__aeabi_dmul(PLT)
.LVL238:
.LPIC49:
	add	r6, pc, r6
	mov	r2, r6
	strd	r0, [sp, #8]
	mov	r0, r5
	mov	r1, #40
	bl	av_log(PLT)
.LVL239:
	.loc 1 284 0
	mov	r0, r4
	bl	volume_init(PLT)
.LVL240:
	.loc 1 285 0
	mov	r0, #0
	b	.L179
.L184:
	.loc 1 277 0
	ldrd	r0, [r4, #144]
	mov	r2, #0
	ldr	r3, .L185+32
	bl	__aeabi_dmul(PLT)
.LVL241:
	mov	r2, #0
	ldr	r3, .L185+36
	bl	__aeabi_dadd(PLT)
.LVL242:
	bl	__aeabi_d2iz(PLT)
.LVL243:
	str	r0, [r4, #152]
	mov	r6, r0
	.loc 1 278 0
	bl	__aeabi_i2d(PLT)
.LVL244:
	mov	r2, #0
	ldr	r3, .L185+40
	bl	__aeabi_dmul(PLT)
.LVL245:
	.loc 1 279 0
	ldr	r2, .L185+44
	mov	r3, r6
.LPIC48:
	add	r2, pc, r2
	.loc 1 278 0
	strd	r0, [r4, #144]
	.loc 1 279 0
	mov	r0, r5
	mov	r1, #40
	bl	av_log(PLT)
.LVL246:
	b	.L180
.L186:
	.align	2
.L185:
	.word	2146959360
	.word	.LC9-(.LPIC43+8)
	.word	.LC1-(.LPIC44+8)
	.word	.LC2-(.LPIC45+8)
	.word	.LANCHOR0-(.LPIC47+8)
	.word	.LC3-(.LPIC46+8)
	.word	.LC5-(.LPIC49+8)
	.word	1077149696
	.word	1081081856
	.word	1071644672
	.word	1064304640
	.word	.LC4-(.LPIC48+8)
.LBE75:
.LBE76:
	.cfi_endproc
.LFE67:
	.size	config_output, .-config_output
	.global	ff_af_volume
	.section	.rodata
	.align	2
.LANCHOR1 = . + 0
	.type	sample_fmts.9297, %object
	.size	sample_fmts.9297, 84
sample_fmts.9297:
	.word	0
	.word	5
	.word	1
	.word	6
	.word	2
	.word	7
	.word	-1
	.word	3
	.word	8
	.word	-1
	.space	16
	.word	4
	.word	9
	.word	-1
	.space	16
	.section	.data.rel.ro,"aw",%progbits
	.align	2
	.type	volume_class, %object
	.size	volume_class, 44
volume_class:
	.word	.LC8
	.word	av_default_item_name
	.word	volume_options
	.word	3608935
	.space	16
	.word	7
	.space	8
	.section	.data.rel.ro.local,"aw",%progbits
	.align	3
.LANCHOR0 = . + 0
	.type	var_names, %object
	.size	var_names, 52
var_names:
	.word	.LC42
	.word	.LC43
	.word	.LC44
	.word	.LC45
	.word	.LC46
	.word	.LC47
	.word	.LC48
	.word	.LC49
	.word	.LC50
	.word	.LC51
	.word	.LC52
	.word	.LC8
	.word	0
	.type	precision_str, %object
	.size	precision_str, 12
precision_str:
	.word	.LC16
	.word	.LC18
	.word	.LC20
	.type	avfilter_af_volume_outputs, %object
	.size	avfilter_af_volume_outputs, 80
avfilter_af_volume_outputs:
	.word	.LC11
	.word	1
	.space	20
	.word	config_output
	.space	8
	.word	0
	.space	36
	.type	avfilter_af_volume_inputs, %object
	.size	avfilter_af_volume_inputs, 80
avfilter_af_volume_inputs:
	.word	.LC11
	.word	1
	.space	8
	.word	filter_frame
	.space	20
	.word	0
	.space	36
	.type	volume_options, %object
	.size	volume_options, 768
volume_options:
	.word	.LC8
	.word	.LC12
	.word	16
	.word	5
	.word	.LC13
	.space	4
	.space	16
	.word	65544
	.space	4
	.word	.LC14
	.word	.LC15
	.word	8
	.word	1
	.word	1
	.word	0
	.word	0
	.word	0
	.word	0
	.word	1073741824
	.word	65544
	.word	.LC14
	.word	.LC16
	.word	.LC17
	.word	0
	.word	128
	.word	0
	.word	0
	.word	0
	.word	-1042284544
	.word	4290772992
	.word	1105199103
	.word	65544
	.word	.LC14
	.word	.LC18
	.word	.LC19
	.word	0
	.word	128
	.word	1
	.word	0
	.word	0
	.word	-1042284544
	.word	4290772992
	.word	1105199103
	.word	65544
	.word	.LC14
	.word	.LC20
	.word	.LC21
	.word	0
	.word	128
	.word	2
	.word	0
	.word	0
	.word	-1042284544
	.word	4290772992
	.word	1105199103
	.word	65544
	.word	.LC14
	.word	.LC22
	.word	.LC23
	.word	12
	.word	1
	.word	0
	.word	0
	.word	0
	.word	0
	.word	0
	.word	1072693248
	.word	65544
	.word	.LC22
	.word	.LC24
	.word	.LC25
	.word	0
	.word	128
	.word	0
	.word	0
	.space	16
	.word	65544
	.word	.LC22
	.word	.LC26
	.word	.LC27
	.word	0
	.word	128
	.word	1
	.word	0
	.space	16
	.word	65544
	.word	.LC22
	.word	.LC28
	.word	.LC29
	.word	120
	.word	1
	.word	0
	.word	0
	.word	0
	.word	0
	.word	0
	.word	1074266112
	.word	65544
	.word	.LC28
	.word	.LC30
	.word	.LC31
	.word	0
	.word	128
	.word	0
	.word	0
	.word	0
	.word	0
	.word	0
	.word	0
	.word	65544
	.word	.LC28
	.word	.LC32
	.word	.LC33
	.word	0
	.word	128
	.word	1
	.word	0
	.word	0
	.word	0
	.word	0
	.word	0
	.word	65544
	.word	.LC28
	.word	.LC34
	.word	.LC35
	.word	0
	.word	128
	.word	2
	.word	0
	.word	0
	.word	0
	.word	0
	.word	0
	.word	65544
	.word	.LC28
	.word	.LC36
	.word	.LC37
	.word	0
	.word	128
	.word	3
	.word	0
	.word	0
	.word	0
	.word	0
	.word	0
	.word	65544
	.word	.LC28
	.word	.LC38
	.word	.LC39
	.word	128
	.word	3
	.word	0
	.word	0
	.word	0
	.word	-1070727168
	.word	0
	.word	1076756480
	.word	65544
	.space	4
	.word	.LC40
	.word	.LC41
	.word	136
	.word	1112493900
	.word	1
	.word	0
	.word	0
	.word	0
	.word	0
	.word	1072693248
	.word	65544
	.space	4
	.word	0
	.space	44
	.section	.data.rel.local,"aw",%progbits
	.align	2
	.type	ff_af_volume, %object
	.size	ff_af_volume, 56
ff_af_volume:
	.word	.LC8
	.word	.LC10
	.word	avfilter_af_volume_inputs
	.word	avfilter_af_volume_outputs
	.word	volume_class
	.word	65536
	.word	init
	.space	4
	.word	uninit
	.word	query_formats
	.word	176
	.space	4
	.word	process_command
	.space	4
	.section	.rodata.str1.4,"aMS",%progbits,1
	.align	2
.LC0:
	.ascii	"Error when evaluating the volume expression '%s'\012"
	.ascii	"\000"
	.space	2
.LC1:
	.ascii	"Invalid value NaN for volume\012\000"
	.space	2
.LC2:
	.ascii	"Invalid value NaN for volume, setting to 0\012\000"
.LC3:
	.ascii	"n:%f t:%f pts:%f precision:%s \000"
	.space	1
.LC4:
	.ascii	"volume_i:%d/255 \000"
	.space	3
.LC5:
	.ascii	"volume:%f volume_dB:%f\012\000"
.LC6:
	.ascii	"Both ReplayGain gain values are unknown.\012\000"
	.space	2
.LC7:
	.ascii	"Using gain %f dB from replaygain side data.\012\000"
	.space	3
.LC8:
	.ascii	"volume\000"
	.space	1
.LC9:
	.ascii	"tb:%f sample_rate:%f nb_channels:%f\012\000"
	.space	3
.LC10:
	.ascii	"Change input volume.\000"
	.space	3
.LC11:
	.ascii	"default\000"
.LC12:
	.ascii	"set volume adjustment expression\000"
	.space	3
.LC13:
	.ascii	"1.0\000"
.LC14:
	.ascii	"precision\000"
	.space	2
.LC15:
	.ascii	"select mathematical precision\000"
	.space	2
.LC16:
	.ascii	"fixed\000"
	.space	2
.LC17:
	.ascii	"select 8-bit fixed-point\000"
	.space	3
.LC18:
	.ascii	"float\000"
	.space	2
.LC19:
	.ascii	"select 32-bit floating-point\000"
	.space	3
.LC20:
	.ascii	"double\000"
	.space	1
.LC21:
	.ascii	"select 64-bit floating-point\000"
	.space	3
.LC22:
	.ascii	"eval\000"
	.space	3
.LC23:
	.ascii	"specify when to evaluate expressions\000"
	.space	3
.LC24:
	.ascii	"once\000"
	.space	3
.LC25:
	.ascii	"eval volume expression once\000"
.LC26:
	.ascii	"frame\000"
	.space	2
.LC27:
	.ascii	"eval volume expression per-frame\000"
	.space	3
.LC28:
	.ascii	"replaygain\000"
	.space	1
.LC29:
	.ascii	"Apply replaygain side data when present\000"
.LC30:
	.ascii	"drop\000"
	.space	3
.LC31:
	.ascii	"replaygain side data is dropped\000"
.LC32:
	.ascii	"ignore\000"
	.space	1
.LC33:
	.ascii	"replaygain side data is ignored\000"
.LC34:
	.ascii	"track\000"
	.space	2
.LC35:
	.ascii	"track gain is preferred\000"
.LC36:
	.ascii	"album\000"
	.space	2
.LC37:
	.ascii	"album gain is preferred\000"
.LC38:
	.ascii	"replaygain_preamp\000"
	.space	2
.LC39:
	.ascii	"Apply replaygain pre-amplification\000"
	.space	1
.LC40:
	.ascii	"replaygain_noclip\000"
	.space	2
.LC41:
	.ascii	"Apply replaygain clipping prevention\000"
	.space	3
.LC42:
	.ascii	"n\000"
	.space	2
.LC43:
	.ascii	"nb_channels\000"
.LC44:
	.ascii	"nb_consumed_samples\000"
.LC45:
	.ascii	"nb_samples\000"
	.space	1
.LC46:
	.ascii	"pos\000"
.LC47:
	.ascii	"pts\000"
.LC48:
	.ascii	"sample_rate\000"
.LC49:
	.ascii	"startpts\000"
	.space	3
.LC50:
	.ascii	"startt\000"
	.space	1
.LC51:
	.ascii	"t\000"
	.space	2
.LC52:
	.ascii	"tb\000"
	.text
.Letext0:
	.file 6 "/Users/meijian/android-ndk-r10e/platforms/android-14/arch-arm/usr/include/machine/_types.h"
	.file 7 "/Users/meijian/android-ndk-r10e/platforms/android-14/arch-arm/usr/include/stdint.h"
	.file 8 "./libavutil/avutil.h"
	.file 9 "./libavutil/log.h"
	.file 10 "./libavutil/opt.h"
	.file 11 "./libavutil/pixfmt.h"
	.file 12 "./libavutil/dict.h"
	.file 13 "./libavutil/eval.h"
	.file 14 "./libavutil/float_dsp.h"
	.file 15 "./libavutil/samplefmt.h"
	.file 16 "./libavutil/replaygain.h"
	.file 17 "./libavutil/buffer.h"
	.file 18 "./libavutil/frame.h"
	.file 19 "libavfilter/avfilter.h"
	.file 20 "libavfilter/internal.h"
	.file 21 "libavfilter/formats.h"
	.file 22 "libavfilter/af_volume.h"
	.file 23 "libavfilter/audio.h"
	.file 24 "./libavutil/mem.h"
	.file 25 "/Users/meijian/android-ndk-r10e/platforms/android-14/arch-arm/usr/include/math.h"
	.file 26 "/Users/meijian/android-ndk-r10e/platforms/android-14/arch-arm/usr/include/string.h"
	.section	.note.GNU-stack,"",%progbits
